libIex-3_0.so.29:_Z13iex_debugTrapv
libIex-3_0.so.29:_ZN7Iex_3_010DivzeroExcC1EONSt7__cxx1112basic_stringIcSt11char_traitsIcESaIcEEE
libIex-3_0.so.29:_ZN7Iex_3_010DivzeroExcC1EOS0_
libIex-3_0.so.29:_ZN7Iex_3_010DivzeroExcC1EPKc
libIex-3_0.so.29:_ZN7Iex_3_010DivzeroExcC1ERKNSt7__cxx1112basic_stringIcSt11char_traitsIcESaIcEEE
libIex-3_0.so.29:_ZN7Iex_3_010DivzeroExcC1ERKS0_
libIex-3_0.so.29:_ZN7Iex_3_010DivzeroExcC1ERNSt7__cxx1118basic_stringstreamIcSt11char_traitsIcESaIcEEE
libIex-3_0.so.29:_ZN7Iex_3_010DivzeroExcC1Ev
libIex-3_0.so.29:_ZN7Iex_3_010DivzeroExcC2EONSt7__cxx1112basic_stringIcSt11char_traitsIcESaIcEEE
libIex-3_0.so.29:_ZN7Iex_3_010DivzeroExcC2EOS0_
libIex-3_0.so.29:_ZN7Iex_3_010DivzeroExcC2EPKc
libIex-3_0.so.29:_ZN7Iex_3_010DivzeroExcC2ERKNSt7__cxx1112basic_stringIcSt11char_traitsIcESaIcEEE
libIex-3_0.so.29:_ZN7Iex_3_010DivzeroExcC2ERKS0_
libIex-3_0.so.29:_ZN7Iex_3_010DivzeroExcC2ERNSt7__cxx1118basic_stringstreamIcSt11char_traitsIcESaIcEEE
libIex-3_0.so.29:_ZN7Iex_3_010DivzeroExcC2Ev
libIex-3_0.so.29:_ZN7Iex_3_010DivzeroExcD0Ev
libIex-3_0.so.29:_ZN7Iex_3_010DivzeroExcD1Ev
libIex-3_0.so.29:_ZN7Iex_3_010DivzeroExcD2Ev
libIex-3_0.so.29:_ZN7Iex_3_010DivzeroExcaSEOS0_
libIex-3_0.so.29:_ZN7Iex_3_010DivzeroExcaSERS0_
libIex-3_0.so.29:_ZN7Iex_3_010EbadmsgExcC1EONSt7__cxx1112basic_stringIcSt11char_traitsIcESaIcEEE
libIex-3_0.so.29:_ZN7Iex_3_010EbadmsgExcC1EOS0_
libIex-3_0.so.29:_ZN7Iex_3_010EbadmsgExcC1EPKc
libIex-3_0.so.29:_ZN7Iex_3_010EbadmsgExcC1ERKNSt7__cxx1112basic_stringIcSt11char_traitsIcESaIcEEE
libIex-3_0.so.29:_ZN7Iex_3_010EbadmsgExcC1ERKS0_
libIex-3_0.so.29:_ZN7Iex_3_010EbadmsgExcC1ERNSt7__cxx1118basic_stringstreamIcSt11char_traitsIcESaIcEEE
libIex-3_0.so.29:_ZN7Iex_3_010EbadmsgExcC1Ev
libIex-3_0.so.29:_ZN7Iex_3_010EbadmsgExcC2EONSt7__cxx1112basic_stringIcSt11char_traitsIcESaIcEEE
libIex-3_0.so.29:_ZN7Iex_3_010EbadmsgExcC2EOS0_
libIex-3_0.so.29:_ZN7Iex_3_010EbadmsgExcC2EPKc
libIex-3_0.so.29:_ZN7Iex_3_010EbadmsgExcC2ERKNSt7__cxx1112basic_stringIcSt11char_traitsIcESaIcEEE
libIex-3_0.so.29:_ZN7Iex_3_010EbadmsgExcC2ERKS0_
libIex-3_0.so.29:_ZN7Iex_3_010EbadmsgExcC2ERNSt7__cxx1118basic_stringstreamIcSt11char_traitsIcESaIcEEE
libIex-3_0.so.29:_ZN7Iex_3_010EbadmsgExcC2Ev
libIex-3_0.so.29:_ZN7Iex_3_010EbadmsgExcD0Ev
libIex-3_0.so.29:_ZN7Iex_3_010EbadmsgExcD1Ev
libIex-3_0.so.29:_ZN7Iex_3_010EbadmsgExcD2Ev
libIex-3_0.so.29:_ZN7Iex_3_010EbadmsgExcaSEOS0_
libIex-3_0.so.29:_ZN7Iex_3_010EbadmsgExcaSERS0_
libIex-3_0.so.29:_ZN7Iex_3_010EbadrqcExcC1EONSt7__cxx1112basic_stringIcSt11char_traitsIcESaIcEEE
libIex-3_0.so.29:_ZN7Iex_3_010EbadrqcExcC1EOS0_
libIex-3_0.so.29:_ZN7Iex_3_010EbadrqcExcC1EPKc
libIex-3_0.so.29:_ZN7Iex_3_010EbadrqcExcC1ERKNSt7__cxx1112basic_stringIcSt11char_traitsIcESaIcEEE
libIex-3_0.so.29:_ZN7Iex_3_010EbadrqcExcC1ERKS0_
libIex-3_0.so.29:_ZN7Iex_3_010EbadrqcExcC1ERNSt7__cxx1118basic_stringstreamIcSt11char_traitsIcESaIcEEE
libIex-3_0.so.29:_ZN7Iex_3_010EbadrqcExcC1Ev
libIex-3_0.so.29:_ZN7Iex_3_010EbadrqcExcC2EONSt7__cxx1112basic_stringIcSt11char_traitsIcESaIcEEE
libIex-3_0.so.29:_ZN7Iex_3_010EbadrqcExcC2EOS0_
libIex-3_0.so.29:_ZN7Iex_3_010EbadrqcExcC2EPKc
libIex-3_0.so.29:_ZN7Iex_3_010EbadrqcExcC2ERKNSt7__cxx1112basic_stringIcSt11char_traitsIcESaIcEEE
libIex-3_0.so.29:_ZN7Iex_3_010EbadrqcExcC2ERKS0_
libIex-3_0.so.29:_ZN7Iex_3_010EbadrqcExcC2ERNSt7__cxx1118basic_stringstreamIcSt11char_traitsIcESaIcEEE
libIex-3_0.so.29:_ZN7Iex_3_010EbadrqcExcC2Ev
libIex-3_0.so.29:_ZN7Iex_3_010EbadrqcExcD0Ev
libIex-3_0.so.29:_ZN7Iex_3_010EbadrqcExcD1Ev
libIex-3_0.so.29:_ZN7Iex_3_010EbadrqcExcD2Ev
libIex-3_0.so.29:_ZN7Iex_3_010EbadrqcExcaSEOS0_
libIex-3_0.so.29:_ZN7Iex_3_010EbadrqcExcaSERS0_
libIex-3_0.so.29:_ZN7Iex_3_010EbadsltExcC1EONSt7__cxx1112basic_stringIcSt11char_traitsIcESaIcEEE
libIex-3_0.so.29:_ZN7Iex_3_010EbadsltExcC1EOS0_
libIex-3_0.so.29:_ZN7Iex_3_010EbadsltExcC1EPKc
libIex-3_0.so.29:_ZN7Iex_3_010EbadsltExcC1ERKNSt7__cxx1112basic_stringIcSt11char_traitsIcESaIcEEE
libIex-3_0.so.29:_ZN7Iex_3_010EbadsltExcC1ERKS0_
libIex-3_0.so.29:_ZN7Iex_3_010EbadsltExcC1ERNSt7__cxx1118basic_stringstreamIcSt11char_traitsIcESaIcEEE
libIex-3_0.so.29:_ZN7Iex_3_010EbadsltExcC1Ev
libIex-3_0.so.29:_ZN7Iex_3_010EbadsltExcC2EONSt7__cxx1112basic_stringIcSt11char_traitsIcESaIcEEE
libIex-3_0.so.29:_ZN7Iex_3_010EbadsltExcC2EOS0_
libIex-3_0.so.29:_ZN7Iex_3_010EbadsltExcC2EPKc
libIex-3_0.so.29:_ZN7Iex_3_010EbadsltExcC2ERKNSt7__cxx1112basic_stringIcSt11char_traitsIcESaIcEEE
libIex-3_0.so.29:_ZN7Iex_3_010EbadsltExcC2ERKS0_
libIex-3_0.so.29:_ZN7Iex_3_010EbadsltExcC2ERNSt7__cxx1118basic_stringstreamIcSt11char_traitsIcESaIcEEE
libIex-3_0.so.29:_ZN7Iex_3_010EbadsltExcC2Ev
libIex-3_0.so.29:_ZN7Iex_3_010EbadsltExcD0Ev
libIex-3_0.so.29:_ZN7Iex_3_010EbadsltExcD1Ev
libIex-3_0.so.29:_ZN7Iex_3_010EbadsltExcD2Ev
libIex-3_0.so.29:_ZN7Iex_3_010EbadsltExcaSEOS0_
libIex-3_0.so.29:_ZN7Iex_3_010EbadsltExcaSERS0_
libIex-3_0.so.29:_ZN7Iex_3_010EdeadlkExcC1EONSt7__cxx1112basic_stringIcSt11char_traitsIcESaIcEEE
libIex-3_0.so.29:_ZN7Iex_3_010EdeadlkExcC1EOS0_
libIex-3_0.so.29:_ZN7Iex_3_010EdeadlkExcC1EPKc
libIex-3_0.so.29:_ZN7Iex_3_010EdeadlkExcC1ERKNSt7__cxx1112basic_stringIcSt11char_traitsIcESaIcEEE
libIex-3_0.so.29:_ZN7Iex_3_010EdeadlkExcC1ERKS0_
libIex-3_0.so.29:_ZN7Iex_3_010EdeadlkExcC1ERNSt7__cxx1118basic_stringstreamIcSt11char_traitsIcESaIcEEE
libIex-3_0.so.29:_ZN7Iex_3_010EdeadlkExcC1Ev
libIex-3_0.so.29:_ZN7Iex_3_010EdeadlkExcC2EONSt7__cxx1112basic_stringIcSt11char_traitsIcESaIcEEE
libIex-3_0.so.29:_ZN7Iex_3_010EdeadlkExcC2EOS0_
libIex-3_0.so.29:_ZN7Iex_3_010EdeadlkExcC2EPKc
libIex-3_0.so.29:_ZN7Iex_3_010EdeadlkExcC2ERKNSt7__cxx1112basic_stringIcSt11char_traitsIcESaIcEEE
libIex-3_0.so.29:_ZN7Iex_3_010EdeadlkExcC2ERKS0_
libIex-3_0.so.29:_ZN7Iex_3_010EdeadlkExcC2ERNSt7__cxx1118basic_stringstreamIcSt11char_traitsIcESaIcEEE
libIex-3_0.so.29:_ZN7Iex_3_010EdeadlkExcC2Ev
libIex-3_0.so.29:_ZN7Iex_3_010EdeadlkExcD0Ev
libIex-3_0.so.29:_ZN7Iex_3_010EdeadlkExcD1Ev
libIex-3_0.so.29:_ZN7Iex_3_010EdeadlkExcD2Ev
libIex-3_0.so.29:_ZN7Iex_3_010EdeadlkExcaSEOS0_
libIex-3_0.so.29:_ZN7Iex_3_010EdeadlkExcaSERS0_
libIex-3_0.so.29:_ZN7Iex_3_010EisconnExcC1EONSt7__cxx1112basic_stringIcSt11char_traitsIcESaIcEEE
libIex-3_0.so.29:_ZN7Iex_3_010EisconnExcC1EOS0_
libIex-3_0.so.29:_ZN7Iex_3_010EisconnExcC1EPKc
libIex-3_0.so.29:_ZN7Iex_3_010EisconnExcC1ERKNSt7__cxx1112basic_stringIcSt11char_traitsIcESaIcEEE
libIex-3_0.so.29:_ZN7Iex_3_010EisconnExcC1ERKS0_
libIex-3_0.so.29:_ZN7Iex_3_010EisconnExcC1ERNSt7__cxx1118basic_stringstreamIcSt11char_traitsIcESaIcEEE
libIex-3_0.so.29:_ZN7Iex_3_010EisconnExcC1Ev
libIex-3_0.so.29:_ZN7Iex_3_010EisconnExcC2EONSt7__cxx1112basic_stringIcSt11char_traitsIcESaIcEEE
libIex-3_0.so.29:_ZN7Iex_3_010EisconnExcC2EOS0_
libIex-3_0.so.29:_ZN7Iex_3_010EisconnExcC2EPKc
libIex-3_0.so.29:_ZN7Iex_3_010EisconnExcC2ERKNSt7__cxx1112basic_stringIcSt11char_traitsIcESaIcEEE
libIex-3_0.so.29:_ZN7Iex_3_010EisconnExcC2ERKS0_
libIex-3_0.so.29:_ZN7Iex_3_010EisconnExcC2ERNSt7__cxx1118basic_stringstreamIcSt11char_traitsIcESaIcEEE
libIex-3_0.so.29:_ZN7Iex_3_010EisconnExcC2Ev
libIex-3_0.so.29:_ZN7Iex_3_010EisconnExcD0Ev
libIex-3_0.so.29:_ZN7Iex_3_010EisconnExcD1Ev
libIex-3_0.so.29:_ZN7Iex_3_010EisconnExcD2Ev
libIex-3_0.so.29:_ZN7Iex_3_010EisconnExcaSEOS0_
libIex-3_0.so.29:_ZN7Iex_3_010EisconnExcaSERS0_
libIex-3_0.so.29:_ZN7Iex_3_010EjoinedExcC1EONSt7__cxx1112basic_stringIcSt11char_traitsIcESaIcEEE
libIex-3_0.so.29:_ZN7Iex_3_010EjoinedExcC1EOS0_
libIex-3_0.so.29:_ZN7Iex_3_010EjoinedExcC1EPKc
libIex-3_0.so.29:_ZN7Iex_3_010EjoinedExcC1ERKNSt7__cxx1112basic_stringIcSt11char_traitsIcESaIcEEE
libIex-3_0.so.29:_ZN7Iex_3_010EjoinedExcC1ERKS0_
libIex-3_0.so.29:_ZN7Iex_3_010EjoinedExcC1ERNSt7__cxx1118basic_stringstreamIcSt11char_traitsIcESaIcEEE
libIex-3_0.so.29:_ZN7Iex_3_010EjoinedExcC1Ev
libIex-3_0.so.29:_ZN7Iex_3_010EjoinedExcC2EONSt7__cxx1112basic_stringIcSt11char_traitsIcESaIcEEE
libIex-3_0.so.29:_ZN7Iex_3_010EjoinedExcC2EOS0_
libIex-3_0.so.29:_ZN7Iex_3_010EjoinedExcC2EPKc
libIex-3_0.so.29:_ZN7Iex_3_010EjoinedExcC2ERKNSt7__cxx1112basic_stringIcSt11char_traitsIcESaIcEEE
libIex-3_0.so.29:_ZN7Iex_3_010EjoinedExcC2ERKS0_
libIex-3_0.so.29:_ZN7Iex_3_010EjoinedExcC2ERNSt7__cxx1118basic_stringstreamIcSt11char_traitsIcESaIcEEE
libIex-3_0.so.29:_ZN7Iex_3_010EjoinedExcC2Ev
libIex-3_0.so.29:_ZN7Iex_3_010EjoinedExcD0Ev
libIex-3_0.so.29:_ZN7Iex_3_010EjoinedExcD1Ev
libIex-3_0.so.29:_ZN7Iex_3_010EjoinedExcD2Ev
libIex-3_0.so.29:_ZN7Iex_3_010EjoinedExcaSEOS0_
libIex-3_0.so.29:_ZN7Iex_3_010EjoinedExcaSERS0_
libIex-3_0.so.29:_ZN7Iex_3_010ElibaccExcC1EONSt7__cxx1112basic_stringIcSt11char_traitsIcESaIcEEE
libIex-3_0.so.29:_ZN7Iex_3_010ElibaccExcC1EOS0_
libIex-3_0.so.29:_ZN7Iex_3_010ElibaccExcC1EPKc
libIex-3_0.so.29:_ZN7Iex_3_010ElibaccExcC1ERKNSt7__cxx1112basic_stringIcSt11char_traitsIcESaIcEEE
libIex-3_0.so.29:_ZN7Iex_3_010ElibaccExcC1ERKS0_
libIex-3_0.so.29:_ZN7Iex_3_010ElibaccExcC1ERNSt7__cxx1118basic_stringstreamIcSt11char_traitsIcESaIcEEE
libIex-3_0.so.29:_ZN7Iex_3_010ElibaccExcC1Ev
libIex-3_0.so.29:_ZN7Iex_3_010ElibaccExcC2EONSt7__cxx1112basic_stringIcSt11char_traitsIcESaIcEEE
libIex-3_0.so.29:_ZN7Iex_3_010ElibaccExcC2EOS0_
libIex-3_0.so.29:_ZN7Iex_3_010ElibaccExcC2EPKc
libIex-3_0.so.29:_ZN7Iex_3_010ElibaccExcC2ERKNSt7__cxx1112basic_stringIcSt11char_traitsIcESaIcEEE
libIex-3_0.so.29:_ZN7Iex_3_010ElibaccExcC2ERKS0_
libIex-3_0.so.29:_ZN7Iex_3_010ElibaccExcC2ERNSt7__cxx1118basic_stringstreamIcSt11char_traitsIcESaIcEEE
libIex-3_0.so.29:_ZN7Iex_3_010ElibaccExcC2Ev
libIex-3_0.so.29:_ZN7Iex_3_010ElibaccExcD0Ev
libIex-3_0.so.29:_ZN7Iex_3_010ElibaccExcD1Ev
libIex-3_0.so.29:_ZN7Iex_3_010ElibaccExcD2Ev
libIex-3_0.so.29:_ZN7Iex_3_010ElibaccExcaSEOS0_
libIex-3_0.so.29:_ZN7Iex_3_010ElibaccExcaSERS0_
libIex-3_0.so.29:_ZN7Iex_3_010ElibbadExcC1EONSt7__cxx1112basic_stringIcSt11char_traitsIcESaIcEEE
libIex-3_0.so.29:_ZN7Iex_3_010ElibbadExcC1EOS0_
libIex-3_0.so.29:_ZN7Iex_3_010ElibbadExcC1EPKc
libIex-3_0.so.29:_ZN7Iex_3_010ElibbadExcC1ERKNSt7__cxx1112basic_stringIcSt11char_traitsIcESaIcEEE
libIex-3_0.so.29:_ZN7Iex_3_010ElibbadExcC1ERKS0_
libIex-3_0.so.29:_ZN7Iex_3_010ElibbadExcC1ERNSt7__cxx1118basic_stringstreamIcSt11char_traitsIcESaIcEEE
libIex-3_0.so.29:_ZN7Iex_3_010ElibbadExcC1Ev
libIex-3_0.so.29:_ZN7Iex_3_010ElibbadExcC2EONSt7__cxx1112basic_stringIcSt11char_traitsIcESaIcEEE
libIex-3_0.so.29:_ZN7Iex_3_010ElibbadExcC2EOS0_
libIex-3_0.so.29:_ZN7Iex_3_010ElibbadExcC2EPKc
libIex-3_0.so.29:_ZN7Iex_3_010ElibbadExcC2ERKNSt7__cxx1112basic_stringIcSt11char_traitsIcESaIcEEE
libIex-3_0.so.29:_ZN7Iex_3_010ElibbadExcC2ERKS0_
libIex-3_0.so.29:_ZN7Iex_3_010ElibbadExcC2ERNSt7__cxx1118basic_stringstreamIcSt11char_traitsIcESaIcEEE
libIex-3_0.so.29:_ZN7Iex_3_010ElibbadExcC2Ev
libIex-3_0.so.29:_ZN7Iex_3_010ElibbadExcD0Ev
libIex-3_0.so.29:_ZN7Iex_3_010ElibbadExcD1Ev
libIex-3_0.so.29:_ZN7Iex_3_010ElibbadExcD2Ev
libIex-3_0.so.29:_ZN7Iex_3_010ElibbadExcaSEOS0_
libIex-3_0.so.29:_ZN7Iex_3_010ElibbadExcaSERS0_
libIex-3_0.so.29:_ZN7Iex_3_010ElibmaxExcC1EONSt7__cxx1112basic_stringIcSt11char_traitsIcESaIcEEE
libIex-3_0.so.29:_ZN7Iex_3_010ElibmaxExcC1EOS0_
libIex-3_0.so.29:_ZN7Iex_3_010ElibmaxExcC1EPKc
libIex-3_0.so.29:_ZN7Iex_3_010ElibmaxExcC1ERKNSt7__cxx1112basic_stringIcSt11char_traitsIcESaIcEEE
libIex-3_0.so.29:_ZN7Iex_3_010ElibmaxExcC1ERKS0_
libIex-3_0.so.29:_ZN7Iex_3_010ElibmaxExcC1ERNSt7__cxx1118basic_stringstreamIcSt11char_traitsIcESaIcEEE
libIex-3_0.so.29:_ZN7Iex_3_010ElibmaxExcC1Ev
libIex-3_0.so.29:_ZN7Iex_3_010ElibmaxExcC2EONSt7__cxx1112basic_stringIcSt11char_traitsIcESaIcEEE
libIex-3_0.so.29:_ZN7Iex_3_010ElibmaxExcC2EOS0_
libIex-3_0.so.29:_ZN7Iex_3_010ElibmaxExcC2EPKc
libIex-3_0.so.29:_ZN7Iex_3_010ElibmaxExcC2ERKNSt7__cxx1112basic_stringIcSt11char_traitsIcESaIcEEE
libIex-3_0.so.29:_ZN7Iex_3_010ElibmaxExcC2ERKS0_
libIex-3_0.so.29:_ZN7Iex_3_010ElibmaxExcC2ERNSt7__cxx1118basic_stringstreamIcSt11char_traitsIcESaIcEEE
libIex-3_0.so.29:_ZN7Iex_3_010ElibmaxExcC2Ev
libIex-3_0.so.29:_ZN7Iex_3_010ElibmaxExcD0Ev
libIex-3_0.so.29:_ZN7Iex_3_010ElibmaxExcD1Ev
libIex-3_0.so.29:_ZN7Iex_3_010ElibmaxExcD2Ev
libIex-3_0.so.29:_ZN7Iex_3_010ElibmaxExcaSEOS0_
libIex-3_0.so.29:_ZN7Iex_3_010ElibmaxExcaSERS0_
libIex-3_0.so.29:_ZN7Iex_3_010ElibscnExcC1EONSt7__cxx1112basic_stringIcSt11char_traitsIcESaIcEEE
libIex-3_0.so.29:_ZN7Iex_3_010ElibscnExcC1EOS0_
libIex-3_0.so.29:_ZN7Iex_3_010ElibscnExcC1EPKc
libIex-3_0.so.29:_ZN7Iex_3_010ElibscnExcC1ERKNSt7__cxx1112basic_stringIcSt11char_traitsIcESaIcEEE
libIex-3_0.so.29:_ZN7Iex_3_010ElibscnExcC1ERKS0_
libIex-3_0.so.29:_ZN7Iex_3_010ElibscnExcC1ERNSt7__cxx1118basic_stringstreamIcSt11char_traitsIcESaIcEEE
libIex-3_0.so.29:_ZN7Iex_3_010ElibscnExcC1Ev
libIex-3_0.so.29:_ZN7Iex_3_010ElibscnExcC2EONSt7__cxx1112basic_stringIcSt11char_traitsIcESaIcEEE
libIex-3_0.so.29:_ZN7Iex_3_010ElibscnExcC2EOS0_
libIex-3_0.so.29:_ZN7Iex_3_010ElibscnExcC2EPKc
libIex-3_0.so.29:_ZN7Iex_3_010ElibscnExcC2ERKNSt7__cxx1112basic_stringIcSt11char_traitsIcESaIcEEE
libIex-3_0.so.29:_ZN7Iex_3_010ElibscnExcC2ERKS0_
libIex-3_0.so.29:_ZN7Iex_3_010ElibscnExcC2ERNSt7__cxx1118basic_stringstreamIcSt11char_traitsIcESaIcEEE
libIex-3_0.so.29:_ZN7Iex_3_010ElibscnExcC2Ev
libIex-3_0.so.29:_ZN7Iex_3_010ElibscnExcD0Ev
libIex-3_0.so.29:_ZN7Iex_3_010ElibscnExcD1Ev
libIex-3_0.so.29:_ZN7Iex_3_010ElibscnExcD2Ev
libIex-3_0.so.29:_ZN7Iex_3_010ElibscnExcaSEOS0_
libIex-3_0.so.29:_ZN7Iex_3_010ElibscnExcaSERS0_
libIex-3_0.so.29:_ZN7Iex_3_010EnavailExcC1EONSt7__cxx1112basic_stringIcSt11char_traitsIcESaIcEEE
libIex-3_0.so.29:_ZN7Iex_3_010EnavailExcC1EOS0_
libIex-3_0.so.29:_ZN7Iex_3_010EnavailExcC1EPKc
libIex-3_0.so.29:_ZN7Iex_3_010EnavailExcC1ERKNSt7__cxx1112basic_stringIcSt11char_traitsIcESaIcEEE
libIex-3_0.so.29:_ZN7Iex_3_010EnavailExcC1ERKS0_
libIex-3_0.so.29:_ZN7Iex_3_010EnavailExcC1ERNSt7__cxx1118basic_stringstreamIcSt11char_traitsIcESaIcEEE
libIex-3_0.so.29:_ZN7Iex_3_010EnavailExcC1Ev
libIex-3_0.so.29:_ZN7Iex_3_010EnavailExcC2EONSt7__cxx1112basic_stringIcSt11char_traitsIcESaIcEEE
libIex-3_0.so.29:_ZN7Iex_3_010EnavailExcC2EOS0_
libIex-3_0.so.29:_ZN7Iex_3_010EnavailExcC2EPKc
libIex-3_0.so.29:_ZN7Iex_3_010EnavailExcC2ERKNSt7__cxx1112basic_stringIcSt11char_traitsIcESaIcEEE
libIex-3_0.so.29:_ZN7Iex_3_010EnavailExcC2ERKS0_
libIex-3_0.so.29:_ZN7Iex_3_010EnavailExcC2ERNSt7__cxx1118basic_stringstreamIcSt11char_traitsIcESaIcEEE
libIex-3_0.so.29:_ZN7Iex_3_010EnavailExcC2Ev
libIex-3_0.so.29:_ZN7Iex_3_010EnavailExcD0Ev
libIex-3_0.so.29:_ZN7Iex_3_010EnavailExcD1Ev
libIex-3_0.so.29:_ZN7Iex_3_010EnavailExcD2Ev
libIex-3_0.so.29:_ZN7Iex_3_010EnavailExcaSEOS0_
libIex-3_0.so.29:_ZN7Iex_3_010EnavailExcaSERS0_
libIex-3_0.so.29:_ZN7Iex_3_010EnoattrExcC1EONSt7__cxx1112basic_stringIcSt11char_traitsIcESaIcEEE
libIex-3_0.so.29:_ZN7Iex_3_010EnoattrExcC1EOS0_
libIex-3_0.so.29:_ZN7Iex_3_010EnoattrExcC1EPKc
libIex-3_0.so.29:_ZN7Iex_3_010EnoattrExcC1ERKNSt7__cxx1112basic_stringIcSt11char_traitsIcESaIcEEE
libIex-3_0.so.29:_ZN7Iex_3_010EnoattrExcC1ERKS0_
libIex-3_0.so.29:_ZN7Iex_3_010EnoattrExcC1ERNSt7__cxx1118basic_stringstreamIcSt11char_traitsIcESaIcEEE
libIex-3_0.so.29:_ZN7Iex_3_010EnoattrExcC1Ev
libIex-3_0.so.29:_ZN7Iex_3_010EnoattrExcC2EONSt7__cxx1112basic_stringIcSt11char_traitsIcESaIcEEE
libIex-3_0.so.29:_ZN7Iex_3_010EnoattrExcC2EOS0_
libIex-3_0.so.29:_ZN7Iex_3_010EnoattrExcC2EPKc
libIex-3_0.so.29:_ZN7Iex_3_010EnoattrExcC2ERKNSt7__cxx1112basic_stringIcSt11char_traitsIcESaIcEEE
libIex-3_0.so.29:_ZN7Iex_3_010EnoattrExcC2ERKS0_
libIex-3_0.so.29:_ZN7Iex_3_010EnoattrExcC2ERNSt7__cxx1118basic_stringstreamIcSt11char_traitsIcESaIcEEE
libIex-3_0.so.29:_ZN7Iex_3_010EnoattrExcC2Ev
libIex-3_0.so.29:_ZN7Iex_3_010EnoattrExcD0Ev
libIex-3_0.so.29:_ZN7Iex_3_010EnoattrExcD1Ev
libIex-3_0.so.29:_ZN7Iex_3_010EnoattrExcD2Ev
libIex-3_0.so.29:_ZN7Iex_3_010EnoattrExcaSEOS0_
libIex-3_0.so.29:_ZN7Iex_3_010EnoattrExcaSERS0_
libIex-3_0.so.29:_ZN7Iex_3_010EnobufsExcC1EONSt7__cxx1112basic_stringIcSt11char_traitsIcESaIcEEE
libIex-3_0.so.29:_ZN7Iex_3_010EnobufsExcC1EOS0_
libIex-3_0.so.29:_ZN7Iex_3_010EnobufsExcC1EPKc
libIex-3_0.so.29:_ZN7Iex_3_010EnobufsExcC1ERKNSt7__cxx1112basic_stringIcSt11char_traitsIcESaIcEEE
libIex-3_0.so.29:_ZN7Iex_3_010EnobufsExcC1ERKS0_
libIex-3_0.so.29:_ZN7Iex_3_010EnobufsExcC1ERNSt7__cxx1118basic_stringstreamIcSt11char_traitsIcESaIcEEE
libIex-3_0.so.29:_ZN7Iex_3_010EnobufsExcC1Ev
libIex-3_0.so.29:_ZN7Iex_3_010EnobufsExcC2EONSt7__cxx1112basic_stringIcSt11char_traitsIcESaIcEEE
libIex-3_0.so.29:_ZN7Iex_3_010EnobufsExcC2EOS0_
libIex-3_0.so.29:_ZN7Iex_3_010EnobufsExcC2EPKc
libIex-3_0.so.29:_ZN7Iex_3_010EnobufsExcC2ERKNSt7__cxx1112basic_stringIcSt11char_traitsIcESaIcEEE
libIex-3_0.so.29:_ZN7Iex_3_010EnobufsExcC2ERKS0_
libIex-3_0.so.29:_ZN7Iex_3_010EnobufsExcC2ERNSt7__cxx1118basic_stringstreamIcSt11char_traitsIcESaIcEEE
libIex-3_0.so.29:_ZN7Iex_3_010EnobufsExcC2Ev
libIex-3_0.so.29:_ZN7Iex_3_010EnobufsExcD0Ev
libIex-3_0.so.29:_ZN7Iex_3_010EnobufsExcD1Ev
libIex-3_0.so.29:_ZN7Iex_3_010EnobufsExcD2Ev
libIex-3_0.so.29:_ZN7Iex_3_010EnobufsExcaSEOS0_
libIex-3_0.so.29:_ZN7Iex_3_010EnobufsExcaSERS0_
libIex-3_0.so.29:_ZN7Iex_3_010EnodataExcC1EONSt7__cxx1112basic_stringIcSt11char_traitsIcESaIcEEE
libIex-3_0.so.29:_ZN7Iex_3_010EnodataExcC1EOS0_
libIex-3_0.so.29:_ZN7Iex_3_010EnodataExcC1EPKc
libIex-3_0.so.29:_ZN7Iex_3_010EnodataExcC1ERKNSt7__cxx1112basic_stringIcSt11char_traitsIcESaIcEEE
libIex-3_0.so.29:_ZN7Iex_3_010EnodataExcC1ERKS0_
libIex-3_0.so.29:_ZN7Iex_3_010EnodataExcC1ERNSt7__cxx1118basic_stringstreamIcSt11char_traitsIcESaIcEEE
libIex-3_0.so.29:_ZN7Iex_3_010EnodataExcC1Ev
libIex-3_0.so.29:_ZN7Iex_3_010EnodataExcC2EONSt7__cxx1112basic_stringIcSt11char_traitsIcESaIcEEE
libIex-3_0.so.29:_ZN7Iex_3_010EnodataExcC2EOS0_
libIex-3_0.so.29:_ZN7Iex_3_010EnodataExcC2EPKc
libIex-3_0.so.29:_ZN7Iex_3_010EnodataExcC2ERKNSt7__cxx1112basic_stringIcSt11char_traitsIcESaIcEEE
libIex-3_0.so.29:_ZN7Iex_3_010EnodataExcC2ERKS0_
libIex-3_0.so.29:_ZN7Iex_3_010EnodataExcC2ERNSt7__cxx1118basic_stringstreamIcSt11char_traitsIcESaIcEEE
libIex-3_0.so.29:_ZN7Iex_3_010EnodataExcC2Ev
libIex-3_0.so.29:_ZN7Iex_3_010EnodataExcD0Ev
libIex-3_0.so.29:_ZN7Iex_3_010EnodataExcD1Ev
libIex-3_0.so.29:_ZN7Iex_3_010EnodataExcD2Ev
libIex-3_0.so.29:_ZN7Iex_3_010EnodataExcaSEOS0_
libIex-3_0.so.29:_ZN7Iex_3_010EnodataExcaSERS0_
libIex-3_0.so.29:_ZN7Iex_3_010EnoexecExcC1EONSt7__cxx1112basic_stringIcSt11char_traitsIcESaIcEEE
libIex-3_0.so.29:_ZN7Iex_3_010EnoexecExcC1EOS0_
libIex-3_0.so.29:_ZN7Iex_3_010EnoexecExcC1EPKc
libIex-3_0.so.29:_ZN7Iex_3_010EnoexecExcC1ERKNSt7__cxx1112basic_stringIcSt11char_traitsIcESaIcEEE
libIex-3_0.so.29:_ZN7Iex_3_010EnoexecExcC1ERKS0_
libIex-3_0.so.29:_ZN7Iex_3_010EnoexecExcC1ERNSt7__cxx1118basic_stringstreamIcSt11char_traitsIcESaIcEEE
libIex-3_0.so.29:_ZN7Iex_3_010EnoexecExcC1Ev
libIex-3_0.so.29:_ZN7Iex_3_010EnoexecExcC2EONSt7__cxx1112basic_stringIcSt11char_traitsIcESaIcEEE
libIex-3_0.so.29:_ZN7Iex_3_010EnoexecExcC2EOS0_
libIex-3_0.so.29:_ZN7Iex_3_010EnoexecExcC2EPKc
libIex-3_0.so.29:_ZN7Iex_3_010EnoexecExcC2ERKNSt7__cxx1112basic_stringIcSt11char_traitsIcESaIcEEE
libIex-3_0.so.29:_ZN7Iex_3_010EnoexecExcC2ERKS0_
libIex-3_0.so.29:_ZN7Iex_3_010EnoexecExcC2ERNSt7__cxx1118basic_stringstreamIcSt11char_traitsIcESaIcEEE
libIex-3_0.so.29:_ZN7Iex_3_010EnoexecExcC2Ev
libIex-3_0.so.29:_ZN7Iex_3_010EnoexecExcD0Ev
libIex-3_0.so.29:_ZN7Iex_3_010EnoexecExcD1Ev
libIex-3_0.so.29:_ZN7Iex_3_010EnoexecExcD2Ev
libIex-3_0.so.29:_ZN7Iex_3_010EnoexecExcaSEOS0_
libIex-3_0.so.29:_ZN7Iex_3_010EnoexecExcaSERS0_
libIex-3_0.so.29:_ZN7Iex_3_010EnolinkExcC1EONSt7__cxx1112basic_stringIcSt11char_traitsIcESaIcEEE
libIex-3_0.so.29:_ZN7Iex_3_010EnolinkExcC1EOS0_
libIex-3_0.so.29:_ZN7Iex_3_010EnolinkExcC1EPKc
libIex-3_0.so.29:_ZN7Iex_3_010EnolinkExcC1ERKNSt7__cxx1112basic_stringIcSt11char_traitsIcESaIcEEE
libIex-3_0.so.29:_ZN7Iex_3_010EnolinkExcC1ERKS0_
libIex-3_0.so.29:_ZN7Iex_3_010EnolinkExcC1ERNSt7__cxx1118basic_stringstreamIcSt11char_traitsIcESaIcEEE
libIex-3_0.so.29:_ZN7Iex_3_010EnolinkExcC1Ev
libIex-3_0.so.29:_ZN7Iex_3_010EnolinkExcC2EONSt7__cxx1112basic_stringIcSt11char_traitsIcESaIcEEE
libIex-3_0.so.29:_ZN7Iex_3_010EnolinkExcC2EOS0_
libIex-3_0.so.29:_ZN7Iex_3_010EnolinkExcC2EPKc
libIex-3_0.so.29:_ZN7Iex_3_010EnolinkExcC2ERKNSt7__cxx1112basic_stringIcSt11char_traitsIcESaIcEEE
libIex-3_0.so.29:_ZN7Iex_3_010EnolinkExcC2ERKS0_
libIex-3_0.so.29:_ZN7Iex_3_010EnolinkExcC2ERNSt7__cxx1118basic_stringstreamIcSt11char_traitsIcESaIcEEE
libIex-3_0.so.29:_ZN7Iex_3_010EnolinkExcC2Ev
libIex-3_0.so.29:_ZN7Iex_3_010EnolinkExcD0Ev
libIex-3_0.so.29:_ZN7Iex_3_010EnolinkExcD1Ev
libIex-3_0.so.29:_ZN7Iex_3_010EnolinkExcD2Ev
libIex-3_0.so.29:_ZN7Iex_3_010EnolinkExcaSEOS0_
libIex-3_0.so.29:_ZN7Iex_3_010EnolinkExcaSERS0_
libIex-3_0.so.29:_ZN7Iex_3_010EnoprocExcC1EONSt7__cxx1112basic_stringIcSt11char_traitsIcESaIcEEE
libIex-3_0.so.29:_ZN7Iex_3_010EnoprocExcC1EOS0_
libIex-3_0.so.29:_ZN7Iex_3_010EnoprocExcC1EPKc
libIex-3_0.so.29:_ZN7Iex_3_010EnoprocExcC1ERKNSt7__cxx1112basic_stringIcSt11char_traitsIcESaIcEEE
libIex-3_0.so.29:_ZN7Iex_3_010EnoprocExcC1ERKS0_
libIex-3_0.so.29:_ZN7Iex_3_010EnoprocExcC1ERNSt7__cxx1118basic_stringstreamIcSt11char_traitsIcESaIcEEE
libIex-3_0.so.29:_ZN7Iex_3_010EnoprocExcC1Ev
libIex-3_0.so.29:_ZN7Iex_3_010EnoprocExcC2EONSt7__cxx1112basic_stringIcSt11char_traitsIcESaIcEEE
libIex-3_0.so.29:_ZN7Iex_3_010EnoprocExcC2EOS0_
libIex-3_0.so.29:_ZN7Iex_3_010EnoprocExcC2EPKc
libIex-3_0.so.29:_ZN7Iex_3_010EnoprocExcC2ERKNSt7__cxx1112basic_stringIcSt11char_traitsIcESaIcEEE
libIex-3_0.so.29:_ZN7Iex_3_010EnoprocExcC2ERKS0_
libIex-3_0.so.29:_ZN7Iex_3_010EnoprocExcC2ERNSt7__cxx1118basic_stringstreamIcSt11char_traitsIcESaIcEEE
libIex-3_0.so.29:_ZN7Iex_3_010EnoprocExcC2Ev
libIex-3_0.so.29:_ZN7Iex_3_010EnoprocExcD0Ev
libIex-3_0.so.29:_ZN7Iex_3_010EnoprocExcD1Ev
libIex-3_0.so.29:_ZN7Iex_3_010EnoprocExcD2Ev
libIex-3_0.so.29:_ZN7Iex_3_010EnoprocExcaSEOS0_
libIex-3_0.so.29:_ZN7Iex_3_010EnoprocExcaSERS0_
libIex-3_0.so.29:_ZN7Iex_3_010EnotblkExcC1EONSt7__cxx1112basic_stringIcSt11char_traitsIcESaIcEEE
libIex-3_0.so.29:_ZN7Iex_3_010EnotblkExcC1EOS0_
libIex-3_0.so.29:_ZN7Iex_3_010EnotblkExcC1EPKc
libIex-3_0.so.29:_ZN7Iex_3_010EnotblkExcC1ERKNSt7__cxx1112basic_stringIcSt11char_traitsIcESaIcEEE
libIex-3_0.so.29:_ZN7Iex_3_010EnotblkExcC1ERKS0_
libIex-3_0.so.29:_ZN7Iex_3_010EnotblkExcC1ERNSt7__cxx1118basic_stringstreamIcSt11char_traitsIcESaIcEEE
libIex-3_0.so.29:_ZN7Iex_3_010EnotblkExcC1Ev
libIex-3_0.so.29:_ZN7Iex_3_010EnotblkExcC2EONSt7__cxx1112basic_stringIcSt11char_traitsIcESaIcEEE
libIex-3_0.so.29:_ZN7Iex_3_010EnotblkExcC2EOS0_
libIex-3_0.so.29:_ZN7Iex_3_010EnotblkExcC2EPKc
libIex-3_0.so.29:_ZN7Iex_3_010EnotblkExcC2ERKNSt7__cxx1112basic_stringIcSt11char_traitsIcESaIcEEE
libIex-3_0.so.29:_ZN7Iex_3_010EnotblkExcC2ERKS0_
libIex-3_0.so.29:_ZN7Iex_3_010EnotblkExcC2ERNSt7__cxx1118basic_stringstreamIcSt11char_traitsIcESaIcEEE
libIex-3_0.so.29:_ZN7Iex_3_010EnotblkExcC2Ev
libIex-3_0.so.29:_ZN7Iex_3_010EnotblkExcD0Ev
libIex-3_0.so.29:_ZN7Iex_3_010EnotblkExcD1Ev
libIex-3_0.so.29:_ZN7Iex_3_010EnotblkExcD2Ev
libIex-3_0.so.29:_ZN7Iex_3_010EnotblkExcaSEOS0_
libIex-3_0.so.29:_ZN7Iex_3_010EnotblkExcaSERS0_
libIex-3_0.so.29:_ZN7Iex_3_010EnotdirExcC1EONSt7__cxx1112basic_stringIcSt11char_traitsIcESaIcEEE
libIex-3_0.so.29:_ZN7Iex_3_010EnotdirExcC1EOS0_
libIex-3_0.so.29:_ZN7Iex_3_010EnotdirExcC1EPKc
libIex-3_0.so.29:_ZN7Iex_3_010EnotdirExcC1ERKNSt7__cxx1112basic_stringIcSt11char_traitsIcESaIcEEE
libIex-3_0.so.29:_ZN7Iex_3_010EnotdirExcC1ERKS0_
libIex-3_0.so.29:_ZN7Iex_3_010EnotdirExcC1ERNSt7__cxx1118basic_stringstreamIcSt11char_traitsIcESaIcEEE
libIex-3_0.so.29:_ZN7Iex_3_010EnotdirExcC1Ev
libIex-3_0.so.29:_ZN7Iex_3_010EnotdirExcC2EONSt7__cxx1112basic_stringIcSt11char_traitsIcESaIcEEE
libIex-3_0.so.29:_ZN7Iex_3_010EnotdirExcC2EOS0_
libIex-3_0.so.29:_ZN7Iex_3_010EnotdirExcC2EPKc
libIex-3_0.so.29:_ZN7Iex_3_010EnotdirExcC2ERKNSt7__cxx1112basic_stringIcSt11char_traitsIcESaIcEEE
libIex-3_0.so.29:_ZN7Iex_3_010EnotdirExcC2ERKS0_
libIex-3_0.so.29:_ZN7Iex_3_010EnotdirExcC2ERNSt7__cxx1118basic_stringstreamIcSt11char_traitsIcESaIcEEE
libIex-3_0.so.29:_ZN7Iex_3_010EnotdirExcC2Ev
libIex-3_0.so.29:_ZN7Iex_3_010EnotdirExcD0Ev
libIex-3_0.so.29:_ZN7Iex_3_010EnotdirExcD1Ev
libIex-3_0.so.29:_ZN7Iex_3_010EnotdirExcD2Ev
libIex-3_0.so.29:_ZN7Iex_3_010EnotdirExcaSEOS0_
libIex-3_0.so.29:_ZN7Iex_3_010EnotdirExcaSERS0_
libIex-3_0.so.29:_ZN7Iex_3_010EnotnamExcC1EONSt7__cxx1112basic_stringIcSt11char_traitsIcESaIcEEE
libIex-3_0.so.29:_ZN7Iex_3_010EnotnamExcC1EOS0_
libIex-3_0.so.29:_ZN7Iex_3_010EnotnamExcC1EPKc
libIex-3_0.so.29:_ZN7Iex_3_010EnotnamExcC1ERKNSt7__cxx1112basic_stringIcSt11char_traitsIcESaIcEEE
libIex-3_0.so.29:_ZN7Iex_3_010EnotnamExcC1ERKS0_
libIex-3_0.so.29:_ZN7Iex_3_010EnotnamExcC1ERNSt7__cxx1118basic_stringstreamIcSt11char_traitsIcESaIcEEE
libIex-3_0.so.29:_ZN7Iex_3_010EnotnamExcC1Ev
libIex-3_0.so.29:_ZN7Iex_3_010EnotnamExcC2EONSt7__cxx1112basic_stringIcSt11char_traitsIcESaIcEEE
libIex-3_0.so.29:_ZN7Iex_3_010EnotnamExcC2EOS0_
libIex-3_0.so.29:_ZN7Iex_3_010EnotnamExcC2EPKc
libIex-3_0.so.29:_ZN7Iex_3_010EnotnamExcC2ERKNSt7__cxx1112basic_stringIcSt11char_traitsIcESaIcEEE
libIex-3_0.so.29:_ZN7Iex_3_010EnotnamExcC2ERKS0_
libIex-3_0.so.29:_ZN7Iex_3_010EnotnamExcC2ERNSt7__cxx1118basic_stringstreamIcSt11char_traitsIcESaIcEEE
libIex-3_0.so.29:_ZN7Iex_3_010EnotnamExcC2Ev
libIex-3_0.so.29:_ZN7Iex_3_010EnotnamExcD0Ev
libIex-3_0.so.29:_ZN7Iex_3_010EnotnamExcD1Ev
libIex-3_0.so.29:_ZN7Iex_3_010EnotnamExcD2Ev
libIex-3_0.so.29:_ZN7Iex_3_010EnotnamExcaSEOS0_
libIex-3_0.so.29:_ZN7Iex_3_010EnotnamExcaSERS0_
libIex-3_0.so.29:_ZN7Iex_3_010EnotsupExcC1EONSt7__cxx1112basic_stringIcSt11char_traitsIcESaIcEEE
libIex-3_0.so.29:_ZN7Iex_3_010EnotsupExcC1EOS0_
libIex-3_0.so.29:_ZN7Iex_3_010EnotsupExcC1EPKc
libIex-3_0.so.29:_ZN7Iex_3_010EnotsupExcC1ERKNSt7__cxx1112basic_stringIcSt11char_traitsIcESaIcEEE
libIex-3_0.so.29:_ZN7Iex_3_010EnotsupExcC1ERKS0_
libIex-3_0.so.29:_ZN7Iex_3_010EnotsupExcC1ERNSt7__cxx1118basic_stringstreamIcSt11char_traitsIcESaIcEEE
libIex-3_0.so.29:_ZN7Iex_3_010EnotsupExcC1Ev
libIex-3_0.so.29:_ZN7Iex_3_010EnotsupExcC2EONSt7__cxx1112basic_stringIcSt11char_traitsIcESaIcEEE
libIex-3_0.so.29:_ZN7Iex_3_010EnotsupExcC2EOS0_
libIex-3_0.so.29:_ZN7Iex_3_010EnotsupExcC2EPKc
libIex-3_0.so.29:_ZN7Iex_3_010EnotsupExcC2ERKNSt7__cxx1112basic_stringIcSt11char_traitsIcESaIcEEE
libIex-3_0.so.29:_ZN7Iex_3_010EnotsupExcC2ERKS0_
libIex-3_0.so.29:_ZN7Iex_3_010EnotsupExcC2ERNSt7__cxx1118basic_stringstreamIcSt11char_traitsIcESaIcEEE
libIex-3_0.so.29:_ZN7Iex_3_010EnotsupExcC2Ev
libIex-3_0.so.29:_ZN7Iex_3_010EnotsupExcD0Ev
libIex-3_0.so.29:_ZN7Iex_3_010EnotsupExcD1Ev
libIex-3_0.so.29:_ZN7Iex_3_010EnotsupExcD2Ev
libIex-3_0.so.29:_ZN7Iex_3_010EnotsupExcaSEOS0_
libIex-3_0.so.29:_ZN7Iex_3_010EnotsupExcaSERS0_
libIex-3_0.so.29:_ZN7Iex_3_010EremchgExcC1EONSt7__cxx1112basic_stringIcSt11char_traitsIcESaIcEEE
libIex-3_0.so.29:_ZN7Iex_3_010EremchgExcC1EOS0_
libIex-3_0.so.29:_ZN7Iex_3_010EremchgExcC1EPKc
libIex-3_0.so.29:_ZN7Iex_3_010EremchgExcC1ERKNSt7__cxx1112basic_stringIcSt11char_traitsIcESaIcEEE
libIex-3_0.so.29:_ZN7Iex_3_010EremchgExcC1ERKS0_
libIex-3_0.so.29:_ZN7Iex_3_010EremchgExcC1ERNSt7__cxx1118basic_stringstreamIcSt11char_traitsIcESaIcEEE
libIex-3_0.so.29:_ZN7Iex_3_010EremchgExcC1Ev
libIex-3_0.so.29:_ZN7Iex_3_010EremchgExcC2EONSt7__cxx1112basic_stringIcSt11char_traitsIcESaIcEEE
libIex-3_0.so.29:_ZN7Iex_3_010EremchgExcC2EOS0_
libIex-3_0.so.29:_ZN7Iex_3_010EremchgExcC2EPKc
libIex-3_0.so.29:_ZN7Iex_3_010EremchgExcC2ERKNSt7__cxx1112basic_stringIcSt11char_traitsIcESaIcEEE
libIex-3_0.so.29:_ZN7Iex_3_010EremchgExcC2ERKS0_
libIex-3_0.so.29:_ZN7Iex_3_010EremchgExcC2ERNSt7__cxx1118basic_stringstreamIcSt11char_traitsIcESaIcEEE
libIex-3_0.so.29:_ZN7Iex_3_010EremchgExcC2Ev
libIex-3_0.so.29:_ZN7Iex_3_010EremchgExcD0Ev
libIex-3_0.so.29:_ZN7Iex_3_010EremchgExcD1Ev
libIex-3_0.so.29:_ZN7Iex_3_010EremchgExcD2Ev
libIex-3_0.so.29:_ZN7Iex_3_010EremchgExcaSEOS0_
libIex-3_0.so.29:_ZN7Iex_3_010EremchgExcaSERS0_
libIex-3_0.so.29:_ZN7Iex_3_010EremdevExcC1EONSt7__cxx1112basic_stringIcSt11char_traitsIcESaIcEEE
libIex-3_0.so.29:_ZN7Iex_3_010EremdevExcC1EOS0_
libIex-3_0.so.29:_ZN7Iex_3_010EremdevExcC1EPKc
libIex-3_0.so.29:_ZN7Iex_3_010EremdevExcC1ERKNSt7__cxx1112basic_stringIcSt11char_traitsIcESaIcEEE
libIex-3_0.so.29:_ZN7Iex_3_010EremdevExcC1ERKS0_
libIex-3_0.so.29:_ZN7Iex_3_010EremdevExcC1ERNSt7__cxx1118basic_stringstreamIcSt11char_traitsIcESaIcEEE
libIex-3_0.so.29:_ZN7Iex_3_010EremdevExcC1Ev
libIex-3_0.so.29:_ZN7Iex_3_010EremdevExcC2EONSt7__cxx1112basic_stringIcSt11char_traitsIcESaIcEEE
libIex-3_0.so.29:_ZN7Iex_3_010EremdevExcC2EOS0_
libIex-3_0.so.29:_ZN7Iex_3_010EremdevExcC2EPKc
libIex-3_0.so.29:_ZN7Iex_3_010EremdevExcC2ERKNSt7__cxx1112basic_stringIcSt11char_traitsIcESaIcEEE
libIex-3_0.so.29:_ZN7Iex_3_010EremdevExcC2ERKS0_
libIex-3_0.so.29:_ZN7Iex_3_010EremdevExcC2ERNSt7__cxx1118basic_stringstreamIcSt11char_traitsIcESaIcEEE
libIex-3_0.so.29:_ZN7Iex_3_010EremdevExcC2Ev
libIex-3_0.so.29:_ZN7Iex_3_010EremdevExcD0Ev
libIex-3_0.so.29:_ZN7Iex_3_010EremdevExcD1Ev
libIex-3_0.so.29:_ZN7Iex_3_010EremdevExcD2Ev
libIex-3_0.so.29:_ZN7Iex_3_010EremdevExcaSEOS0_
libIex-3_0.so.29:_ZN7Iex_3_010EremdevExcaSERS0_
libIex-3_0.so.29:_ZN7Iex_3_010EremoteExcC1EONSt7__cxx1112basic_stringIcSt11char_traitsIcESaIcEEE
libIex-3_0.so.29:_ZN7Iex_3_010EremoteExcC1EOS0_
libIex-3_0.so.29:_ZN7Iex_3_010EremoteExcC1EPKc
libIex-3_0.so.29:_ZN7Iex_3_010EremoteExcC1ERKNSt7__cxx1112basic_stringIcSt11char_traitsIcESaIcEEE
libIex-3_0.so.29:_ZN7Iex_3_010EremoteExcC1ERKS0_
libIex-3_0.so.29:_ZN7Iex_3_010EremoteExcC1ERNSt7__cxx1118basic_stringstreamIcSt11char_traitsIcESaIcEEE
libIex-3_0.so.29:_ZN7Iex_3_010EremoteExcC1Ev
libIex-3_0.so.29:_ZN7Iex_3_010EremoteExcC2EONSt7__cxx1112basic_stringIcSt11char_traitsIcESaIcEEE
libIex-3_0.so.29:_ZN7Iex_3_010EremoteExcC2EOS0_
libIex-3_0.so.29:_ZN7Iex_3_010EremoteExcC2EPKc
libIex-3_0.so.29:_ZN7Iex_3_010EremoteExcC2ERKNSt7__cxx1112basic_stringIcSt11char_traitsIcESaIcEEE
libIex-3_0.so.29:_ZN7Iex_3_010EremoteExcC2ERKS0_
libIex-3_0.so.29:_ZN7Iex_3_010EremoteExcC2ERNSt7__cxx1118basic_stringstreamIcSt11char_traitsIcESaIcEEE
libIex-3_0.so.29:_ZN7Iex_3_010EremoteExcC2Ev
libIex-3_0.so.29:_ZN7Iex_3_010EremoteExcD0Ev
libIex-3_0.so.29:_ZN7Iex_3_010EremoteExcD1Ev
libIex-3_0.so.29:_ZN7Iex_3_010EremoteExcD2Ev
libIex-3_0.so.29:_ZN7Iex_3_010EremoteExcaSEOS0_
libIex-3_0.so.29:_ZN7Iex_3_010EremoteExcaSERS0_
libIex-3_0.so.29:_ZN7Iex_3_010EtxtbsyExcC1EONSt7__cxx1112basic_stringIcSt11char_traitsIcESaIcEEE
libIex-3_0.so.29:_ZN7Iex_3_010EtxtbsyExcC1EOS0_
libIex-3_0.so.29:_ZN7Iex_3_010EtxtbsyExcC1EPKc
libIex-3_0.so.29:_ZN7Iex_3_010EtxtbsyExcC1ERKNSt7__cxx1112basic_stringIcSt11char_traitsIcESaIcEEE
libIex-3_0.so.29:_ZN7Iex_3_010EtxtbsyExcC1ERKS0_
libIex-3_0.so.29:_ZN7Iex_3_010EtxtbsyExcC1ERNSt7__cxx1118basic_stringstreamIcSt11char_traitsIcESaIcEEE
libIex-3_0.so.29:_ZN7Iex_3_010EtxtbsyExcC1Ev
libIex-3_0.so.29:_ZN7Iex_3_010EtxtbsyExcC2EONSt7__cxx1112basic_stringIcSt11char_traitsIcESaIcEEE
libIex-3_0.so.29:_ZN7Iex_3_010EtxtbsyExcC2EOS0_
libIex-3_0.so.29:_ZN7Iex_3_010EtxtbsyExcC2EPKc
libIex-3_0.so.29:_ZN7Iex_3_010EtxtbsyExcC2ERKNSt7__cxx1112basic_stringIcSt11char_traitsIcESaIcEEE
libIex-3_0.so.29:_ZN7Iex_3_010EtxtbsyExcC2ERKS0_
libIex-3_0.so.29:_ZN7Iex_3_010EtxtbsyExcC2ERNSt7__cxx1118basic_stringstreamIcSt11char_traitsIcESaIcEEE
libIex-3_0.so.29:_ZN7Iex_3_010EtxtbsyExcC2Ev
libIex-3_0.so.29:_ZN7Iex_3_010EtxtbsyExcD0Ev
libIex-3_0.so.29:_ZN7Iex_3_010EtxtbsyExcD1Ev
libIex-3_0.so.29:_ZN7Iex_3_010EtxtbsyExcD2Ev
libIex-3_0.so.29:_ZN7Iex_3_010EtxtbsyExcaSEOS0_
libIex-3_0.so.29:_ZN7Iex_3_010EtxtbsyExcaSERS0_
libIex-3_0.so.29:_ZN7Iex_3_010EucleanExcC1EONSt7__cxx1112basic_stringIcSt11char_traitsIcESaIcEEE
libIex-3_0.so.29:_ZN7Iex_3_010EucleanExcC1EOS0_
libIex-3_0.so.29:_ZN7Iex_3_010EucleanExcC1EPKc
libIex-3_0.so.29:_ZN7Iex_3_010EucleanExcC1ERKNSt7__cxx1112basic_stringIcSt11char_traitsIcESaIcEEE
libIex-3_0.so.29:_ZN7Iex_3_010EucleanExcC1ERKS0_
libIex-3_0.so.29:_ZN7Iex_3_010EucleanExcC1ERNSt7__cxx1118basic_stringstreamIcSt11char_traitsIcESaIcEEE
libIex-3_0.so.29:_ZN7Iex_3_010EucleanExcC1Ev
libIex-3_0.so.29:_ZN7Iex_3_010EucleanExcC2EONSt7__cxx1112basic_stringIcSt11char_traitsIcESaIcEEE
libIex-3_0.so.29:_ZN7Iex_3_010EucleanExcC2EOS0_
libIex-3_0.so.29:_ZN7Iex_3_010EucleanExcC2EPKc
libIex-3_0.so.29:_ZN7Iex_3_010EucleanExcC2ERKNSt7__cxx1112basic_stringIcSt11char_traitsIcESaIcEEE
libIex-3_0.so.29:_ZN7Iex_3_010EucleanExcC2ERKS0_
libIex-3_0.so.29:_ZN7Iex_3_010EucleanExcC2ERNSt7__cxx1118basic_stringstreamIcSt11char_traitsIcESaIcEEE
libIex-3_0.so.29:_ZN7Iex_3_010EucleanExcC2Ev
libIex-3_0.so.29:_ZN7Iex_3_010EucleanExcD0Ev
libIex-3_0.so.29:_ZN7Iex_3_010EucleanExcD1Ev
libIex-3_0.so.29:_ZN7Iex_3_010EucleanExcD2Ev
libIex-3_0.so.29:_ZN7Iex_3_010EucleanExcaSEOS0_
libIex-3_0.so.29:_ZN7Iex_3_010EucleanExcaSERS0_
libIex-3_0.so.29:_ZN7Iex_3_010EunatchExcC1EONSt7__cxx1112basic_stringIcSt11char_traitsIcESaIcEEE
libIex-3_0.so.29:_ZN7Iex_3_010EunatchExcC1EOS0_
libIex-3_0.so.29:_ZN7Iex_3_010EunatchExcC1EPKc
libIex-3_0.so.29:_ZN7Iex_3_010EunatchExcC1ERKNSt7__cxx1112basic_stringIcSt11char_traitsIcESaIcEEE
libIex-3_0.so.29:_ZN7Iex_3_010EunatchExcC1ERKS0_
libIex-3_0.so.29:_ZN7Iex_3_010EunatchExcC1ERNSt7__cxx1118basic_stringstreamIcSt11char_traitsIcESaIcEEE
libIex-3_0.so.29:_ZN7Iex_3_010EunatchExcC1Ev
libIex-3_0.so.29:_ZN7Iex_3_010EunatchExcC2EONSt7__cxx1112basic_stringIcSt11char_traitsIcESaIcEEE
libIex-3_0.so.29:_ZN7Iex_3_010EunatchExcC2EOS0_
libIex-3_0.so.29:_ZN7Iex_3_010EunatchExcC2EPKc
libIex-3_0.so.29:_ZN7Iex_3_010EunatchExcC2ERKNSt7__cxx1112basic_stringIcSt11char_traitsIcESaIcEEE
libIex-3_0.so.29:_ZN7Iex_3_010EunatchExcC2ERKS0_
libIex-3_0.so.29:_ZN7Iex_3_010EunatchExcC2ERNSt7__cxx1118basic_stringstreamIcSt11char_traitsIcESaIcEEE
libIex-3_0.so.29:_ZN7Iex_3_010EunatchExcC2Ev
libIex-3_0.so.29:_ZN7Iex_3_010EunatchExcD0Ev
libIex-3_0.so.29:_ZN7Iex_3_010EunatchExcD1Ev
libIex-3_0.so.29:_ZN7Iex_3_010EunatchExcD2Ev
libIex-3_0.so.29:_ZN7Iex_3_010EunatchExcaSEOS0_
libIex-3_0.so.29:_ZN7Iex_3_010EunatchExcaSERS0_
libIex-3_0.so.29:_ZN7Iex_3_010InexactExcC1EONSt7__cxx1112basic_stringIcSt11char_traitsIcESaIcEEE
libIex-3_0.so.29:_ZN7Iex_3_010InexactExcC1EOS0_
libIex-3_0.so.29:_ZN7Iex_3_010InexactExcC1EPKc
libIex-3_0.so.29:_ZN7Iex_3_010InexactExcC1ERKNSt7__cxx1112basic_stringIcSt11char_traitsIcESaIcEEE
libIex-3_0.so.29:_ZN7Iex_3_010InexactExcC1ERKS0_
libIex-3_0.so.29:_ZN7Iex_3_010InexactExcC1ERNSt7__cxx1118basic_stringstreamIcSt11char_traitsIcESaIcEEE
libIex-3_0.so.29:_ZN7Iex_3_010InexactExcC1Ev
libIex-3_0.so.29:_ZN7Iex_3_010InexactExcC2EONSt7__cxx1112basic_stringIcSt11char_traitsIcESaIcEEE
libIex-3_0.so.29:_ZN7Iex_3_010InexactExcC2EOS0_
libIex-3_0.so.29:_ZN7Iex_3_010InexactExcC2EPKc
libIex-3_0.so.29:_ZN7Iex_3_010InexactExcC2ERKNSt7__cxx1112basic_stringIcSt11char_traitsIcESaIcEEE
libIex-3_0.so.29:_ZN7Iex_3_010InexactExcC2ERKS0_
libIex-3_0.so.29:_ZN7Iex_3_010InexactExcC2ERNSt7__cxx1118basic_stringstreamIcSt11char_traitsIcESaIcEEE
libIex-3_0.so.29:_ZN7Iex_3_010InexactExcC2Ev
libIex-3_0.so.29:_ZN7Iex_3_010InexactExcD0Ev
libIex-3_0.so.29:_ZN7Iex_3_010InexactExcD1Ev
libIex-3_0.so.29:_ZN7Iex_3_010InexactExcD2Ev
libIex-3_0.so.29:_ZN7Iex_3_010InexactExcaSEOS0_
libIex-3_0.so.29:_ZN7Iex_3_010InexactExcaSERS0_
libIex-3_0.so.29:_ZN7Iex_3_011EalreadyExcC1EONSt7__cxx1112basic_stringIcSt11char_traitsIcESaIcEEE
libIex-3_0.so.29:_ZN7Iex_3_011EalreadyExcC1EOS0_
libIex-3_0.so.29:_ZN7Iex_3_011EalreadyExcC1EPKc
libIex-3_0.so.29:_ZN7Iex_3_011EalreadyExcC1ERKNSt7__cxx1112basic_stringIcSt11char_traitsIcESaIcEEE
libIex-3_0.so.29:_ZN7Iex_3_011EalreadyExcC1ERKS0_
libIex-3_0.so.29:_ZN7Iex_3_011EalreadyExcC1ERNSt7__cxx1118basic_stringstreamIcSt11char_traitsIcESaIcEEE
libIex-3_0.so.29:_ZN7Iex_3_011EalreadyExcC1Ev
libIex-3_0.so.29:_ZN7Iex_3_011EalreadyExcC2EONSt7__cxx1112basic_stringIcSt11char_traitsIcESaIcEEE
libIex-3_0.so.29:_ZN7Iex_3_011EalreadyExcC2EOS0_
libIex-3_0.so.29:_ZN7Iex_3_011EalreadyExcC2EPKc
libIex-3_0.so.29:_ZN7Iex_3_011EalreadyExcC2ERKNSt7__cxx1112basic_stringIcSt11char_traitsIcESaIcEEE
libIex-3_0.so.29:_ZN7Iex_3_011EalreadyExcC2ERKS0_
libIex-3_0.so.29:_ZN7Iex_3_011EalreadyExcC2ERNSt7__cxx1118basic_stringstreamIcSt11char_traitsIcESaIcEEE
libIex-3_0.so.29:_ZN7Iex_3_011EalreadyExcC2Ev
libIex-3_0.so.29:_ZN7Iex_3_011EalreadyExcD0Ev
libIex-3_0.so.29:_ZN7Iex_3_011EalreadyExcD1Ev
libIex-3_0.so.29:_ZN7Iex_3_011EalreadyExcD2Ev
libIex-3_0.so.29:_ZN7Iex_3_011EalreadyExcaSEOS0_
libIex-3_0.so.29:_ZN7Iex_3_011EalreadyExcaSERS0_
libIex-3_0.so.29:_ZN7Iex_3_011EbufsizeExcC1EONSt7__cxx1112basic_stringIcSt11char_traitsIcESaIcEEE
libIex-3_0.so.29:_ZN7Iex_3_011EbufsizeExcC1EOS0_
libIex-3_0.so.29:_ZN7Iex_3_011EbufsizeExcC1EPKc
libIex-3_0.so.29:_ZN7Iex_3_011EbufsizeExcC1ERKNSt7__cxx1112basic_stringIcSt11char_traitsIcESaIcEEE
libIex-3_0.so.29:_ZN7Iex_3_011EbufsizeExcC1ERKS0_
libIex-3_0.so.29:_ZN7Iex_3_011EbufsizeExcC1ERNSt7__cxx1118basic_stringstreamIcSt11char_traitsIcESaIcEEE
libIex-3_0.so.29:_ZN7Iex_3_011EbufsizeExcC1Ev
libIex-3_0.so.29:_ZN7Iex_3_011EbufsizeExcC2EONSt7__cxx1112basic_stringIcSt11char_traitsIcESaIcEEE
libIex-3_0.so.29:_ZN7Iex_3_011EbufsizeExcC2EOS0_
libIex-3_0.so.29:_ZN7Iex_3_011EbufsizeExcC2EPKc
libIex-3_0.so.29:_ZN7Iex_3_011EbufsizeExcC2ERKNSt7__cxx1112basic_stringIcSt11char_traitsIcESaIcEEE
libIex-3_0.so.29:_ZN7Iex_3_011EbufsizeExcC2ERKS0_
libIex-3_0.so.29:_ZN7Iex_3_011EbufsizeExcC2ERNSt7__cxx1118basic_stringstreamIcSt11char_traitsIcESaIcEEE
libIex-3_0.so.29:_ZN7Iex_3_011EbufsizeExcC2Ev
libIex-3_0.so.29:_ZN7Iex_3_011EbufsizeExcD0Ev
libIex-3_0.so.29:_ZN7Iex_3_011EbufsizeExcD1Ev
libIex-3_0.so.29:_ZN7Iex_3_011EbufsizeExcD2Ev
libIex-3_0.so.29:_ZN7Iex_3_011EbufsizeExcaSEOS0_
libIex-3_0.so.29:_ZN7Iex_3_011EbufsizeExcaSERS0_
libIex-3_0.so.29:_ZN7Iex_3_011EioresidExcC1EONSt7__cxx1112basic_stringIcSt11char_traitsIcESaIcEEE
libIex-3_0.so.29:_ZN7Iex_3_011EioresidExcC1EOS0_
libIex-3_0.so.29:_ZN7Iex_3_011EioresidExcC1EPKc
libIex-3_0.so.29:_ZN7Iex_3_011EioresidExcC1ERKNSt7__cxx1112basic_stringIcSt11char_traitsIcESaIcEEE
libIex-3_0.so.29:_ZN7Iex_3_011EioresidExcC1ERKS0_
libIex-3_0.so.29:_ZN7Iex_3_011EioresidExcC1ERNSt7__cxx1118basic_stringstreamIcSt11char_traitsIcESaIcEEE
libIex-3_0.so.29:_ZN7Iex_3_011EioresidExcC1Ev
libIex-3_0.so.29:_ZN7Iex_3_011EioresidExcC2EONSt7__cxx1112basic_stringIcSt11char_traitsIcESaIcEEE
libIex-3_0.so.29:_ZN7Iex_3_011EioresidExcC2EOS0_
libIex-3_0.so.29:_ZN7Iex_3_011EioresidExcC2EPKc
libIex-3_0.so.29:_ZN7Iex_3_011EioresidExcC2ERKNSt7__cxx1112basic_stringIcSt11char_traitsIcESaIcEEE
libIex-3_0.so.29:_ZN7Iex_3_011EioresidExcC2ERKS0_
libIex-3_0.so.29:_ZN7Iex_3_011EioresidExcC2ERNSt7__cxx1118basic_stringstreamIcSt11char_traitsIcESaIcEEE
libIex-3_0.so.29:_ZN7Iex_3_011EioresidExcC2Ev
libIex-3_0.so.29:_ZN7Iex_3_011EioresidExcD0Ev
libIex-3_0.so.29:_ZN7Iex_3_011EioresidExcD1Ev
libIex-3_0.so.29:_ZN7Iex_3_011EioresidExcD2Ev
libIex-3_0.so.29:_ZN7Iex_3_011EioresidExcaSEOS0_
libIex-3_0.so.29:_ZN7Iex_3_011EioresidExcaSERS0_
libIex-3_0.so.29:_ZN7Iex_3_011El2nsyncExcC1EONSt7__cxx1112basic_stringIcSt11char_traitsIcESaIcEEE
libIex-3_0.so.29:_ZN7Iex_3_011El2nsyncExcC1EOS0_
libIex-3_0.so.29:_ZN7Iex_3_011El2nsyncExcC1EPKc
libIex-3_0.so.29:_ZN7Iex_3_011El2nsyncExcC1ERKNSt7__cxx1112basic_stringIcSt11char_traitsIcESaIcEEE
libIex-3_0.so.29:_ZN7Iex_3_011El2nsyncExcC1ERKS0_
libIex-3_0.so.29:_ZN7Iex_3_011El2nsyncExcC1ERNSt7__cxx1118basic_stringstreamIcSt11char_traitsIcESaIcEEE
libIex-3_0.so.29:_ZN7Iex_3_011El2nsyncExcC1Ev
libIex-3_0.so.29:_ZN7Iex_3_011El2nsyncExcC2EONSt7__cxx1112basic_stringIcSt11char_traitsIcESaIcEEE
libIex-3_0.so.29:_ZN7Iex_3_011El2nsyncExcC2EOS0_
libIex-3_0.so.29:_ZN7Iex_3_011El2nsyncExcC2EPKc
libIex-3_0.so.29:_ZN7Iex_3_011El2nsyncExcC2ERKNSt7__cxx1112basic_stringIcSt11char_traitsIcESaIcEEE
libIex-3_0.so.29:_ZN7Iex_3_011El2nsyncExcC2ERKS0_
libIex-3_0.so.29:_ZN7Iex_3_011El2nsyncExcC2ERNSt7__cxx1118basic_stringstreamIcSt11char_traitsIcESaIcEEE
libIex-3_0.so.29:_ZN7Iex_3_011El2nsyncExcC2Ev
libIex-3_0.so.29:_ZN7Iex_3_011El2nsyncExcD0Ev
libIex-3_0.so.29:_ZN7Iex_3_011El2nsyncExcD1Ev
libIex-3_0.so.29:_ZN7Iex_3_011El2nsyncExcD2Ev
libIex-3_0.so.29:_ZN7Iex_3_011El2nsyncExcaSEOS0_
libIex-3_0.so.29:_ZN7Iex_3_011El2nsyncExcaSERS0_
libIex-3_0.so.29:_ZN7Iex_3_011ElibexecExcC1EONSt7__cxx1112basic_stringIcSt11char_traitsIcESaIcEEE
libIex-3_0.so.29:_ZN7Iex_3_011ElibexecExcC1EOS0_
libIex-3_0.so.29:_ZN7Iex_3_011ElibexecExcC1EPKc
libIex-3_0.so.29:_ZN7Iex_3_011ElibexecExcC1ERKNSt7__cxx1112basic_stringIcSt11char_traitsIcESaIcEEE
libIex-3_0.so.29:_ZN7Iex_3_011ElibexecExcC1ERKS0_
libIex-3_0.so.29:_ZN7Iex_3_011ElibexecExcC1ERNSt7__cxx1118basic_stringstreamIcSt11char_traitsIcESaIcEEE
libIex-3_0.so.29:_ZN7Iex_3_011ElibexecExcC1Ev
libIex-3_0.so.29:_ZN7Iex_3_011ElibexecExcC2EONSt7__cxx1112basic_stringIcSt11char_traitsIcESaIcEEE
libIex-3_0.so.29:_ZN7Iex_3_011ElibexecExcC2EOS0_
libIex-3_0.so.29:_ZN7Iex_3_011ElibexecExcC2EPKc
libIex-3_0.so.29:_ZN7Iex_3_011ElibexecExcC2ERKNSt7__cxx1112basic_stringIcSt11char_traitsIcESaIcEEE
libIex-3_0.so.29:_ZN7Iex_3_011ElibexecExcC2ERKS0_
libIex-3_0.so.29:_ZN7Iex_3_011ElibexecExcC2ERNSt7__cxx1118basic_stringstreamIcSt11char_traitsIcESaIcEEE
libIex-3_0.so.29:_ZN7Iex_3_011ElibexecExcC2Ev
libIex-3_0.so.29:_ZN7Iex_3_011ElibexecExcD0Ev
libIex-3_0.so.29:_ZN7Iex_3_011ElibexecExcD1Ev
libIex-3_0.so.29:_ZN7Iex_3_011ElibexecExcD2Ev
libIex-3_0.so.29:_ZN7Iex_3_011ElibexecExcaSEOS0_
libIex-3_0.so.29:_ZN7Iex_3_011ElibexecExcaSERS0_
libIex-3_0.so.29:_ZN7Iex_3_011EmsgsizeExcC1EONSt7__cxx1112basic_stringIcSt11char_traitsIcESaIcEEE
libIex-3_0.so.29:_ZN7Iex_3_011EmsgsizeExcC1EOS0_
libIex-3_0.so.29:_ZN7Iex_3_011EmsgsizeExcC1EPKc
libIex-3_0.so.29:_ZN7Iex_3_011EmsgsizeExcC1ERKNSt7__cxx1112basic_stringIcSt11char_traitsIcESaIcEEE
libIex-3_0.so.29:_ZN7Iex_3_011EmsgsizeExcC1ERKS0_
libIex-3_0.so.29:_ZN7Iex_3_011EmsgsizeExcC1ERNSt7__cxx1118basic_stringstreamIcSt11char_traitsIcESaIcEEE
libIex-3_0.so.29:_ZN7Iex_3_011EmsgsizeExcC1Ev
libIex-3_0.so.29:_ZN7Iex_3_011EmsgsizeExcC2EONSt7__cxx1112basic_stringIcSt11char_traitsIcESaIcEEE
libIex-3_0.so.29:_ZN7Iex_3_011EmsgsizeExcC2EOS0_
libIex-3_0.so.29:_ZN7Iex_3_011EmsgsizeExcC2EPKc
libIex-3_0.so.29:_ZN7Iex_3_011EmsgsizeExcC2ERKNSt7__cxx1112basic_stringIcSt11char_traitsIcESaIcEEE
libIex-3_0.so.29:_ZN7Iex_3_011EmsgsizeExcC2ERKS0_
libIex-3_0.so.29:_ZN7Iex_3_011EmsgsizeExcC2ERNSt7__cxx1118basic_stringstreamIcSt11char_traitsIcESaIcEEE
libIex-3_0.so.29:_ZN7Iex_3_011EmsgsizeExcC2Ev
libIex-3_0.so.29:_ZN7Iex_3_011EmsgsizeExcD0Ev
libIex-3_0.so.29:_ZN7Iex_3_011EmsgsizeExcD1Ev
libIex-3_0.so.29:_ZN7Iex_3_011EmsgsizeExcD2Ev
libIex-3_0.so.29:_ZN7Iex_3_011EmsgsizeExcaSEOS0_
libIex-3_0.so.29:_ZN7Iex_3_011EmsgsizeExcaSERS0_
libIex-3_0.so.29:_ZN7Iex_3_011EmustrunExcC1EONSt7__cxx1112basic_stringIcSt11char_traitsIcESaIcEEE
libIex-3_0.so.29:_ZN7Iex_3_011EmustrunExcC1EOS0_
libIex-3_0.so.29:_ZN7Iex_3_011EmustrunExcC1EPKc
libIex-3_0.so.29:_ZN7Iex_3_011EmustrunExcC1ERKNSt7__cxx1112basic_stringIcSt11char_traitsIcESaIcEEE
libIex-3_0.so.29:_ZN7Iex_3_011EmustrunExcC1ERKS0_
libIex-3_0.so.29:_ZN7Iex_3_011EmustrunExcC1ERNSt7__cxx1118basic_stringstreamIcSt11char_traitsIcESaIcEEE
libIex-3_0.so.29:_ZN7Iex_3_011EmustrunExcC1Ev
libIex-3_0.so.29:_ZN7Iex_3_011EmustrunExcC2EONSt7__cxx1112basic_stringIcSt11char_traitsIcESaIcEEE
libIex-3_0.so.29:_ZN7Iex_3_011EmustrunExcC2EOS0_
libIex-3_0.so.29:_ZN7Iex_3_011EmustrunExcC2EPKc
libIex-3_0.so.29:_ZN7Iex_3_011EmustrunExcC2ERKNSt7__cxx1112basic_stringIcSt11char_traitsIcESaIcEEE
libIex-3_0.so.29:_ZN7Iex_3_011EmustrunExcC2ERKS0_
libIex-3_0.so.29:_ZN7Iex_3_011EmustrunExcC2ERNSt7__cxx1118basic_stringstreamIcSt11char_traitsIcESaIcEEE
libIex-3_0.so.29:_ZN7Iex_3_011EmustrunExcC2Ev
libIex-3_0.so.29:_ZN7Iex_3_011EmustrunExcD0Ev
libIex-3_0.so.29:_ZN7Iex_3_011EmustrunExcD1Ev
libIex-3_0.so.29:_ZN7Iex_3_011EmustrunExcD2Ev
libIex-3_0.so.29:_ZN7Iex_3_011EmustrunExcaSEOS0_
libIex-3_0.so.29:_ZN7Iex_3_011EmustrunExcaSERS0_
libIex-3_0.so.29:_ZN7Iex_3_011EnetdownExcC1EONSt7__cxx1112basic_stringIcSt11char_traitsIcESaIcEEE
libIex-3_0.so.29:_ZN7Iex_3_011EnetdownExcC1EOS0_
libIex-3_0.so.29:_ZN7Iex_3_011EnetdownExcC1EPKc
libIex-3_0.so.29:_ZN7Iex_3_011EnetdownExcC1ERKNSt7__cxx1112basic_stringIcSt11char_traitsIcESaIcEEE
libIex-3_0.so.29:_ZN7Iex_3_011EnetdownExcC1ERKS0_
libIex-3_0.so.29:_ZN7Iex_3_011EnetdownExcC1ERNSt7__cxx1118basic_stringstreamIcSt11char_traitsIcESaIcEEE
libIex-3_0.so.29:_ZN7Iex_3_011EnetdownExcC1Ev
libIex-3_0.so.29:_ZN7Iex_3_011EnetdownExcC2EONSt7__cxx1112basic_stringIcSt11char_traitsIcESaIcEEE
libIex-3_0.so.29:_ZN7Iex_3_011EnetdownExcC2EOS0_
libIex-3_0.so.29:_ZN7Iex_3_011EnetdownExcC2EPKc
libIex-3_0.so.29:_ZN7Iex_3_011EnetdownExcC2ERKNSt7__cxx1112basic_stringIcSt11char_traitsIcESaIcEEE
libIex-3_0.so.29:_ZN7Iex_3_011EnetdownExcC2ERKS0_
libIex-3_0.so.29:_ZN7Iex_3_011EnetdownExcC2ERNSt7__cxx1118basic_stringstreamIcSt11char_traitsIcESaIcEEE
libIex-3_0.so.29:_ZN7Iex_3_011EnetdownExcC2Ev
libIex-3_0.so.29:_ZN7Iex_3_011EnetdownExcD0Ev
libIex-3_0.so.29:_ZN7Iex_3_011EnetdownExcD1Ev
libIex-3_0.so.29:_ZN7Iex_3_011EnetdownExcD2Ev
libIex-3_0.so.29:_ZN7Iex_3_011EnetdownExcaSEOS0_
libIex-3_0.so.29:_ZN7Iex_3_011EnetdownExcaSERS0_
libIex-3_0.so.29:_ZN7Iex_3_011EnoexistExcC1EONSt7__cxx1112basic_stringIcSt11char_traitsIcESaIcEEE
libIex-3_0.so.29:_ZN7Iex_3_011EnoexistExcC1EOS0_
libIex-3_0.so.29:_ZN7Iex_3_011EnoexistExcC1EPKc
libIex-3_0.so.29:_ZN7Iex_3_011EnoexistExcC1ERKNSt7__cxx1112basic_stringIcSt11char_traitsIcESaIcEEE
libIex-3_0.so.29:_ZN7Iex_3_011EnoexistExcC1ERKS0_
libIex-3_0.so.29:_ZN7Iex_3_011EnoexistExcC1ERNSt7__cxx1118basic_stringstreamIcSt11char_traitsIcESaIcEEE
libIex-3_0.so.29:_ZN7Iex_3_011EnoexistExcC1Ev
libIex-3_0.so.29:_ZN7Iex_3_011EnoexistExcC2EONSt7__cxx1112basic_stringIcSt11char_traitsIcESaIcEEE
libIex-3_0.so.29:_ZN7Iex_3_011EnoexistExcC2EOS0_
libIex-3_0.so.29:_ZN7Iex_3_011EnoexistExcC2EPKc
libIex-3_0.so.29:_ZN7Iex_3_011EnoexistExcC2ERKNSt7__cxx1112basic_stringIcSt11char_traitsIcESaIcEEE
libIex-3_0.so.29:_ZN7Iex_3_011EnoexistExcC2ERKS0_
libIex-3_0.so.29:_ZN7Iex_3_011EnoexistExcC2ERNSt7__cxx1118basic_stringstreamIcSt11char_traitsIcESaIcEEE
libIex-3_0.so.29:_ZN7Iex_3_011EnoexistExcC2Ev
libIex-3_0.so.29:_ZN7Iex_3_011EnoexistExcD0Ev
libIex-3_0.so.29:_ZN7Iex_3_011EnoexistExcD1Ev
libIex-3_0.so.29:_ZN7Iex_3_011EnoexistExcD2Ev
libIex-3_0.so.29:_ZN7Iex_3_011EnoexistExcaSEOS0_
libIex-3_0.so.29:_ZN7Iex_3_011EnoexistExcaSERS0_
libIex-3_0.so.29:_ZN7Iex_3_011EnologinExcC1EONSt7__cxx1112basic_stringIcSt11char_traitsIcESaIcEEE
libIex-3_0.so.29:_ZN7Iex_3_011EnologinExcC1EOS0_
libIex-3_0.so.29:_ZN7Iex_3_011EnologinExcC1EPKc
libIex-3_0.so.29:_ZN7Iex_3_011EnologinExcC1ERKNSt7__cxx1112basic_stringIcSt11char_traitsIcESaIcEEE
libIex-3_0.so.29:_ZN7Iex_3_011EnologinExcC1ERKS0_
libIex-3_0.so.29:_ZN7Iex_3_011EnologinExcC1ERNSt7__cxx1118basic_stringstreamIcSt11char_traitsIcESaIcEEE
libIex-3_0.so.29:_ZN7Iex_3_011EnologinExcC1Ev
libIex-3_0.so.29:_ZN7Iex_3_011EnologinExcC2EONSt7__cxx1112basic_stringIcSt11char_traitsIcESaIcEEE
libIex-3_0.so.29:_ZN7Iex_3_011EnologinExcC2EOS0_
libIex-3_0.so.29:_ZN7Iex_3_011EnologinExcC2EPKc
libIex-3_0.so.29:_ZN7Iex_3_011EnologinExcC2ERKNSt7__cxx1112basic_stringIcSt11char_traitsIcESaIcEEE
libIex-3_0.so.29:_ZN7Iex_3_011EnologinExcC2ERKS0_
libIex-3_0.so.29:_ZN7Iex_3_011EnologinExcC2ERNSt7__cxx1118basic_stringstreamIcSt11char_traitsIcESaIcEEE
libIex-3_0.so.29:_ZN7Iex_3_011EnologinExcC2Ev
libIex-3_0.so.29:_ZN7Iex_3_011EnologinExcD0Ev
libIex-3_0.so.29:_ZN7Iex_3_011EnologinExcD1Ev
libIex-3_0.so.29:_ZN7Iex_3_011EnologinExcD2Ev
libIex-3_0.so.29:_ZN7Iex_3_011EnologinExcaSEOS0_
libIex-3_0.so.29:_ZN7Iex_3_011EnologinExcaSERS0_
libIex-3_0.so.29:_ZN7Iex_3_011EnotconnExcC1EONSt7__cxx1112basic_stringIcSt11char_traitsIcESaIcEEE
libIex-3_0.so.29:_ZN7Iex_3_011EnotconnExcC1EOS0_
libIex-3_0.so.29:_ZN7Iex_3_011EnotconnExcC1EPKc
libIex-3_0.so.29:_ZN7Iex_3_011EnotconnExcC1ERKNSt7__cxx1112basic_stringIcSt11char_traitsIcESaIcEEE
libIex-3_0.so.29:_ZN7Iex_3_011EnotconnExcC1ERKS0_
libIex-3_0.so.29:_ZN7Iex_3_011EnotconnExcC1ERNSt7__cxx1118basic_stringstreamIcSt11char_traitsIcESaIcEEE
libIex-3_0.so.29:_ZN7Iex_3_011EnotconnExcC1Ev
libIex-3_0.so.29:_ZN7Iex_3_011EnotconnExcC2EONSt7__cxx1112basic_stringIcSt11char_traitsIcESaIcEEE
libIex-3_0.so.29:_ZN7Iex_3_011EnotconnExcC2EOS0_
libIex-3_0.so.29:_ZN7Iex_3_011EnotconnExcC2EPKc
libIex-3_0.so.29:_ZN7Iex_3_011EnotconnExcC2ERKNSt7__cxx1112basic_stringIcSt11char_traitsIcESaIcEEE
libIex-3_0.so.29:_ZN7Iex_3_011EnotconnExcC2ERKS0_
libIex-3_0.so.29:_ZN7Iex_3_011EnotconnExcC2ERNSt7__cxx1118basic_stringstreamIcSt11char_traitsIcESaIcEEE
libIex-3_0.so.29:_ZN7Iex_3_011EnotconnExcC2Ev
libIex-3_0.so.29:_ZN7Iex_3_011EnotconnExcD0Ev
libIex-3_0.so.29:_ZN7Iex_3_011EnotconnExcD1Ev
libIex-3_0.so.29:_ZN7Iex_3_011EnotconnExcD2Ev
libIex-3_0.so.29:_ZN7Iex_3_011EnotconnExcaSEOS0_
libIex-3_0.so.29:_ZN7Iex_3_011EnotconnExcaSERS0_
libIex-3_0.so.29:_ZN7Iex_3_011EnotsockExcC1EONSt7__cxx1112basic_stringIcSt11char_traitsIcESaIcEEE
libIex-3_0.so.29:_ZN7Iex_3_011EnotsockExcC1EOS0_
libIex-3_0.so.29:_ZN7Iex_3_011EnotsockExcC1EPKc
libIex-3_0.so.29:_ZN7Iex_3_011EnotsockExcC1ERKNSt7__cxx1112basic_stringIcSt11char_traitsIcESaIcEEE
libIex-3_0.so.29:_ZN7Iex_3_011EnotsockExcC1ERKS0_
libIex-3_0.so.29:_ZN7Iex_3_011EnotsockExcC1ERNSt7__cxx1118basic_stringstreamIcSt11char_traitsIcESaIcEEE
libIex-3_0.so.29:_ZN7Iex_3_011EnotsockExcC1Ev
libIex-3_0.so.29:_ZN7Iex_3_011EnotsockExcC2EONSt7__cxx1112basic_stringIcSt11char_traitsIcESaIcEEE
libIex-3_0.so.29:_ZN7Iex_3_011EnotsockExcC2EOS0_
libIex-3_0.so.29:_ZN7Iex_3_011EnotsockExcC2EPKc
libIex-3_0.so.29:_ZN7Iex_3_011EnotsockExcC2ERKNSt7__cxx1112basic_stringIcSt11char_traitsIcESaIcEEE
libIex-3_0.so.29:_ZN7Iex_3_011EnotsockExcC2ERKS0_
libIex-3_0.so.29:_ZN7Iex_3_011EnotsockExcC2ERNSt7__cxx1118basic_stringstreamIcSt11char_traitsIcESaIcEEE
libIex-3_0.so.29:_ZN7Iex_3_011EnotsockExcC2Ev
libIex-3_0.so.29:_ZN7Iex_3_011EnotsockExcD0Ev
libIex-3_0.so.29:_ZN7Iex_3_011EnotsockExcD1Ev
libIex-3_0.so.29:_ZN7Iex_3_011EnotsockExcD2Ev
libIex-3_0.so.29:_ZN7Iex_3_011EnotsockExcaSEOS0_
libIex-3_0.so.29:_ZN7Iex_3_011EnotsockExcaSERS0_
libIex-3_0.so.29:_ZN7Iex_3_011EnotuniqExcC1EONSt7__cxx1112basic_stringIcSt11char_traitsIcESaIcEEE
libIex-3_0.so.29:_ZN7Iex_3_011EnotuniqExcC1EOS0_
libIex-3_0.so.29:_ZN7Iex_3_011EnotuniqExcC1EPKc
libIex-3_0.so.29:_ZN7Iex_3_011EnotuniqExcC1ERKNSt7__cxx1112basic_stringIcSt11char_traitsIcESaIcEEE
libIex-3_0.so.29:_ZN7Iex_3_011EnotuniqExcC1ERKS0_
libIex-3_0.so.29:_ZN7Iex_3_011EnotuniqExcC1ERNSt7__cxx1118basic_stringstreamIcSt11char_traitsIcESaIcEEE
libIex-3_0.so.29:_ZN7Iex_3_011EnotuniqExcC1Ev
libIex-3_0.so.29:_ZN7Iex_3_011EnotuniqExcC2EONSt7__cxx1112basic_stringIcSt11char_traitsIcESaIcEEE
libIex-3_0.so.29:_ZN7Iex_3_011EnotuniqExcC2EOS0_
libIex-3_0.so.29:_ZN7Iex_3_011EnotuniqExcC2EPKc
libIex-3_0.so.29:_ZN7Iex_3_011EnotuniqExcC2ERKNSt7__cxx1112basic_stringIcSt11char_traitsIcESaIcEEE
libIex-3_0.so.29:_ZN7Iex_3_011EnotuniqExcC2ERKS0_
libIex-3_0.so.29:_ZN7Iex_3_011EnotuniqExcC2ERNSt7__cxx1118basic_stringstreamIcSt11char_traitsIcESaIcEEE
libIex-3_0.so.29:_ZN7Iex_3_011EnotuniqExcC2Ev
libIex-3_0.so.29:_ZN7Iex_3_011EnotuniqExcD0Ev
libIex-3_0.so.29:_ZN7Iex_3_011EnotuniqExcD1Ev
libIex-3_0.so.29:_ZN7Iex_3_011EnotuniqExcD2Ev
libIex-3_0.so.29:_ZN7Iex_3_011EnotuniqExcaSEOS0_
libIex-3_0.so.29:_ZN7Iex_3_011EnotuniqExcaSERS0_
libIex-3_0.so.29:_ZN7Iex_3_011EproclimExcC1EONSt7__cxx1112basic_stringIcSt11char_traitsIcESaIcEEE
libIex-3_0.so.29:_ZN7Iex_3_011EproclimExcC1EOS0_
libIex-3_0.so.29:_ZN7Iex_3_011EproclimExcC1EPKc
libIex-3_0.so.29:_ZN7Iex_3_011EproclimExcC1ERKNSt7__cxx1112basic_stringIcSt11char_traitsIcESaIcEEE
libIex-3_0.so.29:_ZN7Iex_3_011EproclimExcC1ERKS0_
libIex-3_0.so.29:_ZN7Iex_3_011EproclimExcC1ERNSt7__cxx1118basic_stringstreamIcSt11char_traitsIcESaIcEEE
libIex-3_0.so.29:_ZN7Iex_3_011EproclimExcC1Ev
libIex-3_0.so.29:_ZN7Iex_3_011EproclimExcC2EONSt7__cxx1112basic_stringIcSt11char_traitsIcESaIcEEE
libIex-3_0.so.29:_ZN7Iex_3_011EproclimExcC2EOS0_
libIex-3_0.so.29:_ZN7Iex_3_011EproclimExcC2EPKc
libIex-3_0.so.29:_ZN7Iex_3_011EproclimExcC2ERKNSt7__cxx1112basic_stringIcSt11char_traitsIcESaIcEEE
libIex-3_0.so.29:_ZN7Iex_3_011EproclimExcC2ERKS0_
libIex-3_0.so.29:_ZN7Iex_3_011EproclimExcC2ERNSt7__cxx1118basic_stringstreamIcSt11char_traitsIcESaIcEEE
libIex-3_0.so.29:_ZN7Iex_3_011EproclimExcC2Ev
libIex-3_0.so.29:_ZN7Iex_3_011EproclimExcD0Ev
libIex-3_0.so.29:_ZN7Iex_3_011EproclimExcD1Ev
libIex-3_0.so.29:_ZN7Iex_3_011EproclimExcD2Ev
libIex-3_0.so.29:_ZN7Iex_3_011EproclimExcaSEOS0_
libIex-3_0.so.29:_ZN7Iex_3_011EproclimExcaSERS0_
libIex-3_0.so.29:_ZN7Iex_3_011ErestartExcC1EONSt7__cxx1112basic_stringIcSt11char_traitsIcESaIcEEE
libIex-3_0.so.29:_ZN7Iex_3_011ErestartExcC1EOS0_
libIex-3_0.so.29:_ZN7Iex_3_011ErestartExcC1EPKc
libIex-3_0.so.29:_ZN7Iex_3_011ErestartExcC1ERKNSt7__cxx1112basic_stringIcSt11char_traitsIcESaIcEEE
libIex-3_0.so.29:_ZN7Iex_3_011ErestartExcC1ERKS0_
libIex-3_0.so.29:_ZN7Iex_3_011ErestartExcC1ERNSt7__cxx1118basic_stringstreamIcSt11char_traitsIcESaIcEEE
libIex-3_0.so.29:_ZN7Iex_3_011ErestartExcC1Ev
libIex-3_0.so.29:_ZN7Iex_3_011ErestartExcC2EONSt7__cxx1112basic_stringIcSt11char_traitsIcESaIcEEE
libIex-3_0.so.29:_ZN7Iex_3_011ErestartExcC2EOS0_
libIex-3_0.so.29:_ZN7Iex_3_011ErestartExcC2EPKc
libIex-3_0.so.29:_ZN7Iex_3_011ErestartExcC2ERKNSt7__cxx1112basic_stringIcSt11char_traitsIcESaIcEEE
libIex-3_0.so.29:_ZN7Iex_3_011ErestartExcC2ERKS0_
libIex-3_0.so.29:_ZN7Iex_3_011ErestartExcC2ERNSt7__cxx1118basic_stringstreamIcSt11char_traitsIcESaIcEEE
libIex-3_0.so.29:_ZN7Iex_3_011ErestartExcC2Ev
libIex-3_0.so.29:_ZN7Iex_3_011ErestartExcD0Ev
libIex-3_0.so.29:_ZN7Iex_3_011ErestartExcD1Ev
libIex-3_0.so.29:_ZN7Iex_3_011ErestartExcD2Ev
libIex-3_0.so.29:_ZN7Iex_3_011ErestartExcaSEOS0_
libIex-3_0.so.29:_ZN7Iex_3_011ErestartExcaSERS0_
libIex-3_0.so.29:_ZN7Iex_3_011EstrpipeExcC1EONSt7__cxx1112basic_stringIcSt11char_traitsIcESaIcEEE
libIex-3_0.so.29:_ZN7Iex_3_011EstrpipeExcC1EOS0_
libIex-3_0.so.29:_ZN7Iex_3_011EstrpipeExcC1EPKc
libIex-3_0.so.29:_ZN7Iex_3_011EstrpipeExcC1ERKNSt7__cxx1112basic_stringIcSt11char_traitsIcESaIcEEE
libIex-3_0.so.29:_ZN7Iex_3_011EstrpipeExcC1ERKS0_
libIex-3_0.so.29:_ZN7Iex_3_011EstrpipeExcC1ERNSt7__cxx1118basic_stringstreamIcSt11char_traitsIcESaIcEEE
libIex-3_0.so.29:_ZN7Iex_3_011EstrpipeExcC1Ev
libIex-3_0.so.29:_ZN7Iex_3_011EstrpipeExcC2EONSt7__cxx1112basic_stringIcSt11char_traitsIcESaIcEEE
libIex-3_0.so.29:_ZN7Iex_3_011EstrpipeExcC2EOS0_
libIex-3_0.so.29:_ZN7Iex_3_011EstrpipeExcC2EPKc
libIex-3_0.so.29:_ZN7Iex_3_011EstrpipeExcC2ERKNSt7__cxx1112basic_stringIcSt11char_traitsIcESaIcEEE
libIex-3_0.so.29:_ZN7Iex_3_011EstrpipeExcC2ERKS0_
libIex-3_0.so.29:_ZN7Iex_3_011EstrpipeExcC2ERNSt7__cxx1118basic_stringstreamIcSt11char_traitsIcESaIcEEE
libIex-3_0.so.29:_ZN7Iex_3_011EstrpipeExcC2Ev
libIex-3_0.so.29:_ZN7Iex_3_011EstrpipeExcD0Ev
libIex-3_0.so.29:_ZN7Iex_3_011EstrpipeExcD1Ev
libIex-3_0.so.29:_ZN7Iex_3_011EstrpipeExcD2Ev
libIex-3_0.so.29:_ZN7Iex_3_011EstrpipeExcaSEOS0_
libIex-3_0.so.29:_ZN7Iex_3_011EstrpipeExcaSERS0_
libIex-3_0.so.29:_ZN7Iex_3_011OverflowExcC1EONSt7__cxx1112basic_stringIcSt11char_traitsIcESaIcEEE
libIex-3_0.so.29:_ZN7Iex_3_011OverflowExcC1EOS0_
libIex-3_0.so.29:_ZN7Iex_3_011OverflowExcC1EPKc
libIex-3_0.so.29:_ZN7Iex_3_011OverflowExcC1ERKNSt7__cxx1112basic_stringIcSt11char_traitsIcESaIcEEE
libIex-3_0.so.29:_ZN7Iex_3_011OverflowExcC1ERKS0_
libIex-3_0.so.29:_ZN7Iex_3_011OverflowExcC1ERNSt7__cxx1118basic_stringstreamIcSt11char_traitsIcESaIcEEE
libIex-3_0.so.29:_ZN7Iex_3_011OverflowExcC1Ev
libIex-3_0.so.29:_ZN7Iex_3_011OverflowExcC2EONSt7__cxx1112basic_stringIcSt11char_traitsIcESaIcEEE
libIex-3_0.so.29:_ZN7Iex_3_011OverflowExcC2EOS0_
libIex-3_0.so.29:_ZN7Iex_3_011OverflowExcC2EPKc
libIex-3_0.so.29:_ZN7Iex_3_011OverflowExcC2ERKNSt7__cxx1112basic_stringIcSt11char_traitsIcESaIcEEE
libIex-3_0.so.29:_ZN7Iex_3_011OverflowExcC2ERKS0_
libIex-3_0.so.29:_ZN7Iex_3_011OverflowExcC2ERNSt7__cxx1118basic_stringstreamIcSt11char_traitsIcESaIcEEE
libIex-3_0.so.29:_ZN7Iex_3_011OverflowExcC2Ev
libIex-3_0.so.29:_ZN7Iex_3_011OverflowExcD0Ev
libIex-3_0.so.29:_ZN7Iex_3_011OverflowExcD1Ev
libIex-3_0.so.29:_ZN7Iex_3_011OverflowExcD2Ev
libIex-3_0.so.29:_ZN7Iex_3_011OverflowExcaSEOS0_
libIex-3_0.so.29:_ZN7Iex_3_011OverflowExcaSERS0_
libIex-3_0.so.29:_ZN7Iex_3_011stackTracerB5cxx11Ev
libIex-3_0.so.29:_ZN7Iex_3_012EcanceledExcC1EONSt7__cxx1112basic_stringIcSt11char_traitsIcESaIcEEE
libIex-3_0.so.29:_ZN7Iex_3_012EcanceledExcC1EOS0_
libIex-3_0.so.29:_ZN7Iex_3_012EcanceledExcC1EPKc
libIex-3_0.so.29:_ZN7Iex_3_012EcanceledExcC1ERKNSt7__cxx1112basic_stringIcSt11char_traitsIcESaIcEEE
libIex-3_0.so.29:_ZN7Iex_3_012EcanceledExcC1ERKS0_
libIex-3_0.so.29:_ZN7Iex_3_012EcanceledExcC1ERNSt7__cxx1118basic_stringstreamIcSt11char_traitsIcESaIcEEE
libIex-3_0.so.29:_ZN7Iex_3_012EcanceledExcC1Ev
libIex-3_0.so.29:_ZN7Iex_3_012EcanceledExcC2EONSt7__cxx1112basic_stringIcSt11char_traitsIcESaIcEEE
libIex-3_0.so.29:_ZN7Iex_3_012EcanceledExcC2EOS0_
libIex-3_0.so.29:_ZN7Iex_3_012EcanceledExcC2EPKc
libIex-3_0.so.29:_ZN7Iex_3_012EcanceledExcC2ERKNSt7__cxx1112basic_stringIcSt11char_traitsIcESaIcEEE
libIex-3_0.so.29:_ZN7Iex_3_012EcanceledExcC2ERKS0_
libIex-3_0.so.29:_ZN7Iex_3_012EcanceledExcC2ERNSt7__cxx1118basic_stringstreamIcSt11char_traitsIcESaIcEEE
libIex-3_0.so.29:_ZN7Iex_3_012EcanceledExcC2Ev
libIex-3_0.so.29:_ZN7Iex_3_012EcanceledExcD0Ev
libIex-3_0.so.29:_ZN7Iex_3_012EcanceledExcD1Ev
libIex-3_0.so.29:_ZN7Iex_3_012EcanceledExcD2Ev
libIex-3_0.so.29:_ZN7Iex_3_012EcanceledExcaSEOS0_
libIex-3_0.so.29:_ZN7Iex_3_012EcanceledExcaSERS0_
libIex-3_0.so.29:_ZN7Iex_3_012EclockcpuExcC1EONSt7__cxx1112basic_stringIcSt11char_traitsIcESaIcEEE
libIex-3_0.so.29:_ZN7Iex_3_012EclockcpuExcC1EOS0_
libIex-3_0.so.29:_ZN7Iex_3_012EclockcpuExcC1EPKc
libIex-3_0.so.29:_ZN7Iex_3_012EclockcpuExcC1ERKNSt7__cxx1112basic_stringIcSt11char_traitsIcESaIcEEE
libIex-3_0.so.29:_ZN7Iex_3_012EclockcpuExcC1ERKS0_
libIex-3_0.so.29:_ZN7Iex_3_012EclockcpuExcC1ERNSt7__cxx1118basic_stringstreamIcSt11char_traitsIcESaIcEEE
libIex-3_0.so.29:_ZN7Iex_3_012EclockcpuExcC1Ev
libIex-3_0.so.29:_ZN7Iex_3_012EclockcpuExcC2EONSt7__cxx1112basic_stringIcSt11char_traitsIcESaIcEEE
libIex-3_0.so.29:_ZN7Iex_3_012EclockcpuExcC2EOS0_
libIex-3_0.so.29:_ZN7Iex_3_012EclockcpuExcC2EPKc
libIex-3_0.so.29:_ZN7Iex_3_012EclockcpuExcC2ERKNSt7__cxx1112basic_stringIcSt11char_traitsIcESaIcEEE
libIex-3_0.so.29:_ZN7Iex_3_012EclockcpuExcC2ERKS0_
libIex-3_0.so.29:_ZN7Iex_3_012EclockcpuExcC2ERNSt7__cxx1118basic_stringstreamIcSt11char_traitsIcESaIcEEE
libIex-3_0.so.29:_ZN7Iex_3_012EclockcpuExcC2Ev
libIex-3_0.so.29:_ZN7Iex_3_012EclockcpuExcD0Ev
libIex-3_0.so.29:_ZN7Iex_3_012EclockcpuExcD1Ev
libIex-3_0.so.29:_ZN7Iex_3_012EclockcpuExcD2Ev
libIex-3_0.so.29:_ZN7Iex_3_012EclockcpuExcaSEOS0_
libIex-3_0.so.29:_ZN7Iex_3_012EclockcpuExcaSERS0_
libIex-3_0.so.29:_ZN7Iex_3_012EdeadlockExcC1EONSt7__cxx1112basic_stringIcSt11char_traitsIcESaIcEEE
libIex-3_0.so.29:_ZN7Iex_3_012EdeadlockExcC1EOS0_
libIex-3_0.so.29:_ZN7Iex_3_012EdeadlockExcC1EPKc
libIex-3_0.so.29:_ZN7Iex_3_012EdeadlockExcC1ERKNSt7__cxx1112basic_stringIcSt11char_traitsIcESaIcEEE
libIex-3_0.so.29:_ZN7Iex_3_012EdeadlockExcC1ERKS0_
libIex-3_0.so.29:_ZN7Iex_3_012EdeadlockExcC1ERNSt7__cxx1118basic_stringstreamIcSt11char_traitsIcESaIcEEE
libIex-3_0.so.29:_ZN7Iex_3_012EdeadlockExcC1Ev
libIex-3_0.so.29:_ZN7Iex_3_012EdeadlockExcC2EONSt7__cxx1112basic_stringIcSt11char_traitsIcESaIcEEE
libIex-3_0.so.29:_ZN7Iex_3_012EdeadlockExcC2EOS0_
libIex-3_0.so.29:_ZN7Iex_3_012EdeadlockExcC2EPKc
libIex-3_0.so.29:_ZN7Iex_3_012EdeadlockExcC2ERKNSt7__cxx1112basic_stringIcSt11char_traitsIcESaIcEEE
libIex-3_0.so.29:_ZN7Iex_3_012EdeadlockExcC2ERKS0_
libIex-3_0.so.29:_ZN7Iex_3_012EdeadlockExcC2ERNSt7__cxx1118basic_stringstreamIcSt11char_traitsIcESaIcEEE
libIex-3_0.so.29:_ZN7Iex_3_012EdeadlockExcC2Ev
libIex-3_0.so.29:_ZN7Iex_3_012EdeadlockExcD0Ev
libIex-3_0.so.29:_ZN7Iex_3_012EdeadlockExcD1Ev
libIex-3_0.so.29:_ZN7Iex_3_012EdeadlockExcD2Ev
libIex-3_0.so.29:_ZN7Iex_3_012EdeadlockExcaSEOS0_
libIex-3_0.so.29:_ZN7Iex_3_012EdeadlockExcaSERS0_
libIex-3_0.so.29:_ZN7Iex_3_012EdisjointExcC1EONSt7__cxx1112basic_stringIcSt11char_traitsIcESaIcEEE
libIex-3_0.so.29:_ZN7Iex_3_012EdisjointExcC1EOS0_
libIex-3_0.so.29:_ZN7Iex_3_012EdisjointExcC1EPKc
libIex-3_0.so.29:_ZN7Iex_3_012EdisjointExcC1ERKNSt7__cxx1112basic_stringIcSt11char_traitsIcESaIcEEE
libIex-3_0.so.29:_ZN7Iex_3_012EdisjointExcC1ERKS0_
libIex-3_0.so.29:_ZN7Iex_3_012EdisjointExcC1ERNSt7__cxx1118basic_stringstreamIcSt11char_traitsIcESaIcEEE
libIex-3_0.so.29:_ZN7Iex_3_012EdisjointExcC1Ev
libIex-3_0.so.29:_ZN7Iex_3_012EdisjointExcC2EONSt7__cxx1112basic_stringIcSt11char_traitsIcESaIcEEE
libIex-3_0.so.29:_ZN7Iex_3_012EdisjointExcC2EOS0_
libIex-3_0.so.29:_ZN7Iex_3_012EdisjointExcC2EPKc
libIex-3_0.so.29:_ZN7Iex_3_012EdisjointExcC2ERKNSt7__cxx1112basic_stringIcSt11char_traitsIcESaIcEEE
libIex-3_0.so.29:_ZN7Iex_3_012EdisjointExcC2ERKS0_
libIex-3_0.so.29:_ZN7Iex_3_012EdisjointExcC2ERNSt7__cxx1118basic_stringstreamIcSt11char_traitsIcESaIcEEE
libIex-3_0.so.29:_ZN7Iex_3_012EdisjointExcC2Ev
libIex-3_0.so.29:_ZN7Iex_3_012EdisjointExcD0Ev
libIex-3_0.so.29:_ZN7Iex_3_012EdisjointExcD1Ev
libIex-3_0.so.29:_ZN7Iex_3_012EdisjointExcD2Ev
libIex-3_0.so.29:_ZN7Iex_3_012EdisjointExcaSEOS0_
libIex-3_0.so.29:_ZN7Iex_3_012EdisjointExcaSERS0_
libIex-3_0.so.29:_ZN7Iex_3_012EenqueuedExcC1EONSt7__cxx1112basic_stringIcSt11char_traitsIcESaIcEEE
libIex-3_0.so.29:_ZN7Iex_3_012EenqueuedExcC1EOS0_
libIex-3_0.so.29:_ZN7Iex_3_012EenqueuedExcC1EPKc
libIex-3_0.so.29:_ZN7Iex_3_012EenqueuedExcC1ERKNSt7__cxx1112basic_stringIcSt11char_traitsIcESaIcEEE
libIex-3_0.so.29:_ZN7Iex_3_012EenqueuedExcC1ERKS0_
libIex-3_0.so.29:_ZN7Iex_3_012EenqueuedExcC1ERNSt7__cxx1118basic_stringstreamIcSt11char_traitsIcESaIcEEE
libIex-3_0.so.29:_ZN7Iex_3_012EenqueuedExcC1Ev
libIex-3_0.so.29:_ZN7Iex_3_012EenqueuedExcC2EONSt7__cxx1112basic_stringIcSt11char_traitsIcESaIcEEE
libIex-3_0.so.29:_ZN7Iex_3_012EenqueuedExcC2EOS0_
libIex-3_0.so.29:_ZN7Iex_3_012EenqueuedExcC2EPKc
libIex-3_0.so.29:_ZN7Iex_3_012EenqueuedExcC2ERKNSt7__cxx1112basic_stringIcSt11char_traitsIcESaIcEEE
libIex-3_0.so.29:_ZN7Iex_3_012EenqueuedExcC2ERKS0_
libIex-3_0.so.29:_ZN7Iex_3_012EenqueuedExcC2ERNSt7__cxx1118basic_stringstreamIcSt11char_traitsIcESaIcEEE
libIex-3_0.so.29:_ZN7Iex_3_012EenqueuedExcC2Ev
libIex-3_0.so.29:_ZN7Iex_3_012EenqueuedExcD0Ev
libIex-3_0.so.29:_ZN7Iex_3_012EenqueuedExcD1Ev
libIex-3_0.so.29:_ZN7Iex_3_012EenqueuedExcD2Ev
libIex-3_0.so.29:_ZN7Iex_3_012EenqueuedExcaSEOS0_
libIex-3_0.so.29:_ZN7Iex_3_012EenqueuedExcaSERS0_
libIex-3_0.so.29:_ZN7Iex_3_012EhostdownExcC1EONSt7__cxx1112basic_stringIcSt11char_traitsIcESaIcEEE
libIex-3_0.so.29:_ZN7Iex_3_012EhostdownExcC1EOS0_
libIex-3_0.so.29:_ZN7Iex_3_012EhostdownExcC1EPKc
libIex-3_0.so.29:_ZN7Iex_3_012EhostdownExcC1ERKNSt7__cxx1112basic_stringIcSt11char_traitsIcESaIcEEE
libIex-3_0.so.29:_ZN7Iex_3_012EhostdownExcC1ERKS0_
libIex-3_0.so.29:_ZN7Iex_3_012EhostdownExcC1ERNSt7__cxx1118basic_stringstreamIcSt11char_traitsIcESaIcEEE
libIex-3_0.so.29:_ZN7Iex_3_012EhostdownExcC1Ev
libIex-3_0.so.29:_ZN7Iex_3_012EhostdownExcC2EONSt7__cxx1112basic_stringIcSt11char_traitsIcESaIcEEE
libIex-3_0.so.29:_ZN7Iex_3_012EhostdownExcC2EOS0_
libIex-3_0.so.29:_ZN7Iex_3_012EhostdownExcC2EPKc
libIex-3_0.so.29:_ZN7Iex_3_012EhostdownExcC2ERKNSt7__cxx1112basic_stringIcSt11char_traitsIcESaIcEEE
libIex-3_0.so.29:_ZN7Iex_3_012EhostdownExcC2ERKS0_
libIex-3_0.so.29:_ZN7Iex_3_012EhostdownExcC2ERNSt7__cxx1118basic_stringstreamIcSt11char_traitsIcESaIcEEE
libIex-3_0.so.29:_ZN7Iex_3_012EhostdownExcC2Ev
libIex-3_0.so.29:_ZN7Iex_3_012EhostdownExcD0Ev
libIex-3_0.so.29:_ZN7Iex_3_012EhostdownExcD1Ev
libIex-3_0.so.29:_ZN7Iex_3_012EhostdownExcD2Ev
libIex-3_0.so.29:_ZN7Iex_3_012EhostdownExcaSEOS0_
libIex-3_0.so.29:_ZN7Iex_3_012EhostdownExcaSERS0_
libIex-3_0.so.29:_ZN7Iex_3_012EloginlimExcC1EONSt7__cxx1112basic_stringIcSt11char_traitsIcESaIcEEE
libIex-3_0.so.29:_ZN7Iex_3_012EloginlimExcC1EOS0_
libIex-3_0.so.29:_ZN7Iex_3_012EloginlimExcC1EPKc
libIex-3_0.so.29:_ZN7Iex_3_012EloginlimExcC1ERKNSt7__cxx1112basic_stringIcSt11char_traitsIcESaIcEEE
libIex-3_0.so.29:_ZN7Iex_3_012EloginlimExcC1ERKS0_
libIex-3_0.so.29:_ZN7Iex_3_012EloginlimExcC1ERNSt7__cxx1118basic_stringstreamIcSt11char_traitsIcESaIcEEE
libIex-3_0.so.29:_ZN7Iex_3_012EloginlimExcC1Ev
libIex-3_0.so.29:_ZN7Iex_3_012EloginlimExcC2EONSt7__cxx1112basic_stringIcSt11char_traitsIcESaIcEEE
libIex-3_0.so.29:_ZN7Iex_3_012EloginlimExcC2EOS0_
libIex-3_0.so.29:_ZN7Iex_3_012EloginlimExcC2EPKc
libIex-3_0.so.29:_ZN7Iex_3_012EloginlimExcC2ERKNSt7__cxx1112basic_stringIcSt11char_traitsIcESaIcEEE
libIex-3_0.so.29:_ZN7Iex_3_012EloginlimExcC2ERKS0_
libIex-3_0.so.29:_ZN7Iex_3_012EloginlimExcC2ERNSt7__cxx1118basic_stringstreamIcSt11char_traitsIcESaIcEEE
libIex-3_0.so.29:_ZN7Iex_3_012EloginlimExcC2Ev
libIex-3_0.so.29:_ZN7Iex_3_012EloginlimExcD0Ev
libIex-3_0.so.29:_ZN7Iex_3_012EloginlimExcD1Ev
libIex-3_0.so.29:_ZN7Iex_3_012EloginlimExcD2Ev
libIex-3_0.so.29:_ZN7Iex_3_012EloginlimExcaSEOS0_
libIex-3_0.so.29:_ZN7Iex_3_012EloginlimExcaSERS0_
libIex-3_0.so.29:_ZN7Iex_3_012EmultihopExcC1EONSt7__cxx1112basic_stringIcSt11char_traitsIcESaIcEEE
libIex-3_0.so.29:_ZN7Iex_3_012EmultihopExcC1EOS0_
libIex-3_0.so.29:_ZN7Iex_3_012EmultihopExcC1EPKc
libIex-3_0.so.29:_ZN7Iex_3_012EmultihopExcC1ERKNSt7__cxx1112basic_stringIcSt11char_traitsIcESaIcEEE
libIex-3_0.so.29:_ZN7Iex_3_012EmultihopExcC1ERKS0_
libIex-3_0.so.29:_ZN7Iex_3_012EmultihopExcC1ERNSt7__cxx1118basic_stringstreamIcSt11char_traitsIcESaIcEEE
libIex-3_0.so.29:_ZN7Iex_3_012EmultihopExcC1Ev
libIex-3_0.so.29:_ZN7Iex_3_012EmultihopExcC2EONSt7__cxx1112basic_stringIcSt11char_traitsIcESaIcEEE
libIex-3_0.so.29:_ZN7Iex_3_012EmultihopExcC2EOS0_
libIex-3_0.so.29:_ZN7Iex_3_012EmultihopExcC2EPKc
libIex-3_0.so.29:_ZN7Iex_3_012EmultihopExcC2ERKNSt7__cxx1112basic_stringIcSt11char_traitsIcESaIcEEE
libIex-3_0.so.29:_ZN7Iex_3_012EmultihopExcC2ERKS0_
libIex-3_0.so.29:_ZN7Iex_3_012EmultihopExcC2ERNSt7__cxx1118basic_stringstreamIcSt11char_traitsIcESaIcEEE
libIex-3_0.so.29:_ZN7Iex_3_012EmultihopExcC2Ev
libIex-3_0.so.29:_ZN7Iex_3_012EmultihopExcD0Ev
libIex-3_0.so.29:_ZN7Iex_3_012EmultihopExcD1Ev
libIex-3_0.so.29:_ZN7Iex_3_012EmultihopExcD2Ev
libIex-3_0.so.29:_ZN7Iex_3_012EmultihopExcaSEOS0_
libIex-3_0.so.29:_ZN7Iex_3_012EmultihopExcaSERS0_
libIex-3_0.so.29:_ZN7Iex_3_012EnetresetExcC1EONSt7__cxx1112basic_stringIcSt11char_traitsIcESaIcEEE
libIex-3_0.so.29:_ZN7Iex_3_012EnetresetExcC1EOS0_
libIex-3_0.so.29:_ZN7Iex_3_012EnetresetExcC1EPKc
libIex-3_0.so.29:_ZN7Iex_3_012EnetresetExcC1ERKNSt7__cxx1112basic_stringIcSt11char_traitsIcESaIcEEE
libIex-3_0.so.29:_ZN7Iex_3_012EnetresetExcC1ERKS0_
libIex-3_0.so.29:_ZN7Iex_3_012EnetresetExcC1ERNSt7__cxx1118basic_stringstreamIcSt11char_traitsIcESaIcEEE
libIex-3_0.so.29:_ZN7Iex_3_012EnetresetExcC1Ev
libIex-3_0.so.29:_ZN7Iex_3_012EnetresetExcC2EONSt7__cxx1112basic_stringIcSt11char_traitsIcESaIcEEE
libIex-3_0.so.29:_ZN7Iex_3_012EnetresetExcC2EOS0_
libIex-3_0.so.29:_ZN7Iex_3_012EnetresetExcC2EPKc
libIex-3_0.so.29:_ZN7Iex_3_012EnetresetExcC2ERKNSt7__cxx1112basic_stringIcSt11char_traitsIcESaIcEEE
libIex-3_0.so.29:_ZN7Iex_3_012EnetresetExcC2ERKS0_
libIex-3_0.so.29:_ZN7Iex_3_012EnetresetExcC2ERNSt7__cxx1118basic_stringstreamIcSt11char_traitsIcESaIcEEE
libIex-3_0.so.29:_ZN7Iex_3_012EnetresetExcC2Ev
libIex-3_0.so.29:_ZN7Iex_3_012EnetresetExcD0Ev
libIex-3_0.so.29:_ZN7Iex_3_012EnetresetExcD1Ev
libIex-3_0.so.29:_ZN7Iex_3_012EnetresetExcD2Ev
libIex-3_0.so.29:_ZN7Iex_3_012EnetresetExcaSEOS0_
libIex-3_0.so.29:_ZN7Iex_3_012EnetresetExcaSERS0_
libIex-3_0.so.29:_ZN7Iex_3_012EnoattachExcC1EONSt7__cxx1112basic_stringIcSt11char_traitsIcESaIcEEE
libIex-3_0.so.29:_ZN7Iex_3_012EnoattachExcC1EOS0_
libIex-3_0.so.29:_ZN7Iex_3_012EnoattachExcC1EPKc
libIex-3_0.so.29:_ZN7Iex_3_012EnoattachExcC1ERKNSt7__cxx1112basic_stringIcSt11char_traitsIcESaIcEEE
libIex-3_0.so.29:_ZN7Iex_3_012EnoattachExcC1ERKS0_
libIex-3_0.so.29:_ZN7Iex_3_012EnoattachExcC1ERNSt7__cxx1118basic_stringstreamIcSt11char_traitsIcESaIcEEE
libIex-3_0.so.29:_ZN7Iex_3_012EnoattachExcC1Ev
libIex-3_0.so.29:_ZN7Iex_3_012EnoattachExcC2EONSt7__cxx1112basic_stringIcSt11char_traitsIcESaIcEEE
libIex-3_0.so.29:_ZN7Iex_3_012EnoattachExcC2EOS0_
libIex-3_0.so.29:_ZN7Iex_3_012EnoattachExcC2EPKc
libIex-3_0.so.29:_ZN7Iex_3_012EnoattachExcC2ERKNSt7__cxx1112basic_stringIcSt11char_traitsIcESaIcEEE
libIex-3_0.so.29:_ZN7Iex_3_012EnoattachExcC2ERKS0_
libIex-3_0.so.29:_ZN7Iex_3_012EnoattachExcC2ERNSt7__cxx1118basic_stringstreamIcSt11char_traitsIcESaIcEEE
libIex-3_0.so.29:_ZN7Iex_3_012EnoattachExcC2Ev
libIex-3_0.so.29:_ZN7Iex_3_012EnoattachExcD0Ev
libIex-3_0.so.29:_ZN7Iex_3_012EnoattachExcD1Ev
libIex-3_0.so.29:_ZN7Iex_3_012EnoattachExcD2Ev
libIex-3_0.so.29:_ZN7Iex_3_012EnoattachExcaSEOS0_
libIex-3_0.so.29:_ZN7Iex_3_012EnoattachExcaSERS0_
libIex-3_0.so.29:_ZN7Iex_3_012EnotemptyExcC1EONSt7__cxx1112basic_stringIcSt11char_traitsIcESaIcEEE
libIex-3_0.so.29:_ZN7Iex_3_012EnotemptyExcC1EOS0_
libIex-3_0.so.29:_ZN7Iex_3_012EnotemptyExcC1EPKc
libIex-3_0.so.29:_ZN7Iex_3_012EnotemptyExcC1ERKNSt7__cxx1112basic_stringIcSt11char_traitsIcESaIcEEE
libIex-3_0.so.29:_ZN7Iex_3_012EnotemptyExcC1ERKS0_
libIex-3_0.so.29:_ZN7Iex_3_012EnotemptyExcC1ERNSt7__cxx1118basic_stringstreamIcSt11char_traitsIcESaIcEEE
libIex-3_0.so.29:_ZN7Iex_3_012EnotemptyExcC1Ev
libIex-3_0.so.29:_ZN7Iex_3_012EnotemptyExcC2EONSt7__cxx1112basic_stringIcSt11char_traitsIcESaIcEEE
libIex-3_0.so.29:_ZN7Iex_3_012EnotemptyExcC2EOS0_
libIex-3_0.so.29:_ZN7Iex_3_012EnotemptyExcC2EPKc
libIex-3_0.so.29:_ZN7Iex_3_012EnotemptyExcC2ERKNSt7__cxx1112basic_stringIcSt11char_traitsIcESaIcEEE
libIex-3_0.so.29:_ZN7Iex_3_012EnotemptyExcC2ERKS0_
libIex-3_0.so.29:_ZN7Iex_3_012EnotemptyExcC2ERNSt7__cxx1118basic_stringstreamIcSt11char_traitsIcESaIcEEE
libIex-3_0.so.29:_ZN7Iex_3_012EnotemptyExcC2Ev
libIex-3_0.so.29:_ZN7Iex_3_012EnotemptyExcD0Ev
libIex-3_0.so.29:_ZN7Iex_3_012EnotemptyExcD1Ev
libIex-3_0.so.29:_ZN7Iex_3_012EnotemptyExcD2Ev
libIex-3_0.so.29:_ZN7Iex_3_012EnotemptyExcaSEOS0_
libIex-3_0.so.29:_ZN7Iex_3_012EnotemptyExcaSERS0_
libIex-3_0.so.29:_ZN7Iex_3_012EoverflowExcC1EONSt7__cxx1112basic_stringIcSt11char_traitsIcESaIcEEE
libIex-3_0.so.29:_ZN7Iex_3_012EoverflowExcC1EOS0_
libIex-3_0.so.29:_ZN7Iex_3_012EoverflowExcC1EPKc
libIex-3_0.so.29:_ZN7Iex_3_012EoverflowExcC1ERKNSt7__cxx1112basic_stringIcSt11char_traitsIcESaIcEEE
libIex-3_0.so.29:_ZN7Iex_3_012EoverflowExcC1ERKS0_
libIex-3_0.so.29:_ZN7Iex_3_012EoverflowExcC1ERNSt7__cxx1118basic_stringstreamIcSt11char_traitsIcESaIcEEE
libIex-3_0.so.29:_ZN7Iex_3_012EoverflowExcC1Ev
libIex-3_0.so.29:_ZN7Iex_3_012EoverflowExcC2EONSt7__cxx1112basic_stringIcSt11char_traitsIcESaIcEEE
libIex-3_0.so.29:_ZN7Iex_3_012EoverflowExcC2EOS0_
libIex-3_0.so.29:_ZN7Iex_3_012EoverflowExcC2EPKc
libIex-3_0.so.29:_ZN7Iex_3_012EoverflowExcC2ERKNSt7__cxx1112basic_stringIcSt11char_traitsIcESaIcEEE
libIex-3_0.so.29:_ZN7Iex_3_012EoverflowExcC2ERKS0_
libIex-3_0.so.29:_ZN7Iex_3_012EoverflowExcC2ERNSt7__cxx1118basic_stringstreamIcSt11char_traitsIcESaIcEEE
libIex-3_0.so.29:_ZN7Iex_3_012EoverflowExcC2Ev
libIex-3_0.so.29:_ZN7Iex_3_012EoverflowExcD0Ev
libIex-3_0.so.29:_ZN7Iex_3_012EoverflowExcD1Ev
libIex-3_0.so.29:_ZN7Iex_3_012EoverflowExcD2Ev
libIex-3_0.so.29:_ZN7Iex_3_012EoverflowExcaSEOS0_
libIex-3_0.so.29:_ZN7Iex_3_012EoverflowExcaSERS0_
libIex-3_0.so.29:_ZN7Iex_3_012EremoteioExcC1EONSt7__cxx1112basic_stringIcSt11char_traitsIcESaIcEEE
libIex-3_0.so.29:_ZN7Iex_3_012EremoteioExcC1EOS0_
libIex-3_0.so.29:_ZN7Iex_3_012EremoteioExcC1EPKc
libIex-3_0.so.29:_ZN7Iex_3_012EremoteioExcC1ERKNSt7__cxx1112basic_stringIcSt11char_traitsIcESaIcEEE
libIex-3_0.so.29:_ZN7Iex_3_012EremoteioExcC1ERKS0_
libIex-3_0.so.29:_ZN7Iex_3_012EremoteioExcC1ERNSt7__cxx1118basic_stringstreamIcSt11char_traitsIcESaIcEEE
libIex-3_0.so.29:_ZN7Iex_3_012EremoteioExcC1Ev
libIex-3_0.so.29:_ZN7Iex_3_012EremoteioExcC2EONSt7__cxx1112basic_stringIcSt11char_traitsIcESaIcEEE
libIex-3_0.so.29:_ZN7Iex_3_012EremoteioExcC2EOS0_
libIex-3_0.so.29:_ZN7Iex_3_012EremoteioExcC2EPKc
libIex-3_0.so.29:_ZN7Iex_3_012EremoteioExcC2ERKNSt7__cxx1112basic_stringIcSt11char_traitsIcESaIcEEE
libIex-3_0.so.29:_ZN7Iex_3_012EremoteioExcC2ERKS0_
libIex-3_0.so.29:_ZN7Iex_3_012EremoteioExcC2ERNSt7__cxx1118basic_stringstreamIcSt11char_traitsIcESaIcEEE
libIex-3_0.so.29:_ZN7Iex_3_012EremoteioExcC2Ev
libIex-3_0.so.29:_ZN7Iex_3_012EremoteioExcD0Ev
libIex-3_0.so.29:_ZN7Iex_3_012EremoteioExcD1Ev
libIex-3_0.so.29:_ZN7Iex_3_012EremoteioExcD2Ev
libIex-3_0.so.29:_ZN7Iex_3_012EremoteioExcaSEOS0_
libIex-3_0.so.29:_ZN7Iex_3_012EremoteioExcaSERS0_
libIex-3_0.so.29:_ZN7Iex_3_012EshutdownExcC1EONSt7__cxx1112basic_stringIcSt11char_traitsIcESaIcEEE
libIex-3_0.so.29:_ZN7Iex_3_012EshutdownExcC1EOS0_
libIex-3_0.so.29:_ZN7Iex_3_012EshutdownExcC1EPKc
libIex-3_0.so.29:_ZN7Iex_3_012EshutdownExcC1ERKNSt7__cxx1112basic_stringIcSt11char_traitsIcESaIcEEE
libIex-3_0.so.29:_ZN7Iex_3_012EshutdownExcC1ERKS0_
libIex-3_0.so.29:_ZN7Iex_3_012EshutdownExcC1ERNSt7__cxx1118basic_stringstreamIcSt11char_traitsIcESaIcEEE
libIex-3_0.so.29:_ZN7Iex_3_012EshutdownExcC1Ev
libIex-3_0.so.29:_ZN7Iex_3_012EshutdownExcC2EONSt7__cxx1112basic_stringIcSt11char_traitsIcESaIcEEE
libIex-3_0.so.29:_ZN7Iex_3_012EshutdownExcC2EOS0_
libIex-3_0.so.29:_ZN7Iex_3_012EshutdownExcC2EPKc
libIex-3_0.so.29:_ZN7Iex_3_012EshutdownExcC2ERKNSt7__cxx1112basic_stringIcSt11char_traitsIcESaIcEEE
libIex-3_0.so.29:_ZN7Iex_3_012EshutdownExcC2ERKS0_
libIex-3_0.so.29:_ZN7Iex_3_012EshutdownExcC2ERNSt7__cxx1118basic_stringstreamIcSt11char_traitsIcESaIcEEE
libIex-3_0.so.29:_ZN7Iex_3_012EshutdownExcC2Ev
libIex-3_0.so.29:_ZN7Iex_3_012EshutdownExcD0Ev
libIex-3_0.so.29:_ZN7Iex_3_012EshutdownExcD1Ev
libIex-3_0.so.29:_ZN7Iex_3_012EshutdownExcD2Ev
libIex-3_0.so.29:_ZN7Iex_3_012EshutdownExcaSEOS0_
libIex-3_0.so.29:_ZN7Iex_3_012EshutdownExcaSERS0_
libIex-3_0.so.29:_ZN7Iex_3_012EtimedoutExcC1EONSt7__cxx1112basic_stringIcSt11char_traitsIcESaIcEEE
libIex-3_0.so.29:_ZN7Iex_3_012EtimedoutExcC1EOS0_
libIex-3_0.so.29:_ZN7Iex_3_012EtimedoutExcC1EPKc
libIex-3_0.so.29:_ZN7Iex_3_012EtimedoutExcC1ERKNSt7__cxx1112basic_stringIcSt11char_traitsIcESaIcEEE
libIex-3_0.so.29:_ZN7Iex_3_012EtimedoutExcC1ERKS0_
libIex-3_0.so.29:_ZN7Iex_3_012EtimedoutExcC1ERNSt7__cxx1118basic_stringstreamIcSt11char_traitsIcESaIcEEE
libIex-3_0.so.29:_ZN7Iex_3_012EtimedoutExcC1Ev
libIex-3_0.so.29:_ZN7Iex_3_012EtimedoutExcC2EONSt7__cxx1112basic_stringIcSt11char_traitsIcESaIcEEE
libIex-3_0.so.29:_ZN7Iex_3_012EtimedoutExcC2EOS0_
libIex-3_0.so.29:_ZN7Iex_3_012EtimedoutExcC2EPKc
libIex-3_0.so.29:_ZN7Iex_3_012EtimedoutExcC2ERKNSt7__cxx1112basic_stringIcSt11char_traitsIcESaIcEEE
libIex-3_0.so.29:_ZN7Iex_3_012EtimedoutExcC2ERKS0_
libIex-3_0.so.29:_ZN7Iex_3_012EtimedoutExcC2ERNSt7__cxx1118basic_stringstreamIcSt11char_traitsIcESaIcEEE
libIex-3_0.so.29:_ZN7Iex_3_012EtimedoutExcC2Ev
libIex-3_0.so.29:_ZN7Iex_3_012EtimedoutExcD0Ev
libIex-3_0.so.29:_ZN7Iex_3_012EtimedoutExcD1Ev
libIex-3_0.so.29:_ZN7Iex_3_012EtimedoutExcD2Ev
libIex-3_0.so.29:_ZN7Iex_3_012EtimedoutExcaSEOS0_
libIex-3_0.so.29:_ZN7Iex_3_012EtimedoutExcaSERS0_
libIex-3_0.so.29:_ZN7Iex_3_012UnderflowExcC1EONSt7__cxx1112basic_stringIcSt11char_traitsIcESaIcEEE
libIex-3_0.so.29:_ZN7Iex_3_012UnderflowExcC1EOS0_
libIex-3_0.so.29:_ZN7Iex_3_012UnderflowExcC1EPKc
libIex-3_0.so.29:_ZN7Iex_3_012UnderflowExcC1ERKNSt7__cxx1112basic_stringIcSt11char_traitsIcESaIcEEE
libIex-3_0.so.29:_ZN7Iex_3_012UnderflowExcC1ERKS0_
libIex-3_0.so.29:_ZN7Iex_3_012UnderflowExcC1ERNSt7__cxx1118basic_stringstreamIcSt11char_traitsIcESaIcEEE
libIex-3_0.so.29:_ZN7Iex_3_012UnderflowExcC1Ev
libIex-3_0.so.29:_ZN7Iex_3_012UnderflowExcC2EONSt7__cxx1112basic_stringIcSt11char_traitsIcESaIcEEE
libIex-3_0.so.29:_ZN7Iex_3_012UnderflowExcC2EOS0_
libIex-3_0.so.29:_ZN7Iex_3_012UnderflowExcC2EPKc
libIex-3_0.so.29:_ZN7Iex_3_012UnderflowExcC2ERKNSt7__cxx1112basic_stringIcSt11char_traitsIcESaIcEEE
libIex-3_0.so.29:_ZN7Iex_3_012UnderflowExcC2ERKS0_
libIex-3_0.so.29:_ZN7Iex_3_012UnderflowExcC2ERNSt7__cxx1118basic_stringstreamIcSt11char_traitsIcESaIcEEE
libIex-3_0.so.29:_ZN7Iex_3_012UnderflowExcC2Ev
libIex-3_0.so.29:_ZN7Iex_3_012UnderflowExcD0Ev
libIex-3_0.so.29:_ZN7Iex_3_012UnderflowExcD1Ev
libIex-3_0.so.29:_ZN7Iex_3_012UnderflowExcD2Ev
libIex-3_0.so.29:_ZN7Iex_3_012UnderflowExcaSEOS0_
libIex-3_0.so.29:_ZN7Iex_3_012UnderflowExcaSERS0_
libIex-3_0.so.29:_ZN7Iex_3_012getMathExcOnEv
libIex-3_0.so.29:_ZN7Iex_3_013EaddrinuseExcC1EONSt7__cxx1112basic_stringIcSt11char_traitsIcESaIcEEE
libIex-3_0.so.29:_ZN7Iex_3_013EaddrinuseExcC1EOS0_
libIex-3_0.so.29:_ZN7Iex_3_013EaddrinuseExcC1EPKc
libIex-3_0.so.29:_ZN7Iex_3_013EaddrinuseExcC1ERKNSt7__cxx1112basic_stringIcSt11char_traitsIcESaIcEEE
libIex-3_0.so.29:_ZN7Iex_3_013EaddrinuseExcC1ERKS0_
libIex-3_0.so.29:_ZN7Iex_3_013EaddrinuseExcC1ERNSt7__cxx1118basic_stringstreamIcSt11char_traitsIcESaIcEEE
libIex-3_0.so.29:_ZN7Iex_3_013EaddrinuseExcC1Ev
libIex-3_0.so.29:_ZN7Iex_3_013EaddrinuseExcC2EONSt7__cxx1112basic_stringIcSt11char_traitsIcESaIcEEE
libIex-3_0.so.29:_ZN7Iex_3_013EaddrinuseExcC2EOS0_
libIex-3_0.so.29:_ZN7Iex_3_013EaddrinuseExcC2EPKc
libIex-3_0.so.29:_ZN7Iex_3_013EaddrinuseExcC2ERKNSt7__cxx1112basic_stringIcSt11char_traitsIcESaIcEEE
libIex-3_0.so.29:_ZN7Iex_3_013EaddrinuseExcC2ERKS0_
libIex-3_0.so.29:_ZN7Iex_3_013EaddrinuseExcC2ERNSt7__cxx1118basic_stringstreamIcSt11char_traitsIcESaIcEEE
libIex-3_0.so.29:_ZN7Iex_3_013EaddrinuseExcC2Ev
libIex-3_0.so.29:_ZN7Iex_3_013EaddrinuseExcD0Ev
libIex-3_0.so.29:_ZN7Iex_3_013EaddrinuseExcD1Ev
libIex-3_0.so.29:_ZN7Iex_3_013EaddrinuseExcD2Ev
libIex-3_0.so.29:_ZN7Iex_3_013EaddrinuseExcaSEOS0_
libIex-3_0.so.29:_ZN7Iex_3_013EaddrinuseExcaSERS0_
libIex-3_0.so.29:_ZN7Iex_3_013EconnresetExcC1EONSt7__cxx1112basic_stringIcSt11char_traitsIcESaIcEEE
libIex-3_0.so.29:_ZN7Iex_3_013EconnresetExcC1EOS0_
libIex-3_0.so.29:_ZN7Iex_3_013EconnresetExcC1EPKc
libIex-3_0.so.29:_ZN7Iex_3_013EconnresetExcC1ERKNSt7__cxx1112basic_stringIcSt11char_traitsIcESaIcEEE
libIex-3_0.so.29:_ZN7Iex_3_013EconnresetExcC1ERKS0_
libIex-3_0.so.29:_ZN7Iex_3_013EconnresetExcC1ERNSt7__cxx1118basic_stringstreamIcSt11char_traitsIcESaIcEEE
libIex-3_0.so.29:_ZN7Iex_3_013EconnresetExcC1Ev
libIex-3_0.so.29:_ZN7Iex_3_013EconnresetExcC2EONSt7__cxx1112basic_stringIcSt11char_traitsIcESaIcEEE
libIex-3_0.so.29:_ZN7Iex_3_013EconnresetExcC2EOS0_
libIex-3_0.so.29:_ZN7Iex_3_013EconnresetExcC2EPKc
libIex-3_0.so.29:_ZN7Iex_3_013EconnresetExcC2ERKNSt7__cxx1112basic_stringIcSt11char_traitsIcESaIcEEE
libIex-3_0.so.29:_ZN7Iex_3_013EconnresetExcC2ERKS0_
libIex-3_0.so.29:_ZN7Iex_3_013EconnresetExcC2ERNSt7__cxx1118basic_stringstreamIcSt11char_traitsIcESaIcEEE
libIex-3_0.so.29:_ZN7Iex_3_013EconnresetExcC2Ev
libIex-3_0.so.29:_ZN7Iex_3_013EconnresetExcD0Ev
libIex-3_0.so.29:_ZN7Iex_3_013EconnresetExcD1Ev
libIex-3_0.so.29:_ZN7Iex_3_013EconnresetExcD2Ev
libIex-3_0.so.29:_ZN7Iex_3_013EconnresetExcaSEOS0_
libIex-3_0.so.29:_ZN7Iex_3_013EconnresetExcaSERS0_
libIex-3_0.so.29:_ZN7Iex_3_013EdestroyedExcC1EONSt7__cxx1112basic_stringIcSt11char_traitsIcESaIcEEE
libIex-3_0.so.29:_ZN7Iex_3_013EdestroyedExcC1EOS0_
libIex-3_0.so.29:_ZN7Iex_3_013EdestroyedExcC1EPKc
libIex-3_0.so.29:_ZN7Iex_3_013EdestroyedExcC1ERKNSt7__cxx1112basic_stringIcSt11char_traitsIcESaIcEEE
libIex-3_0.so.29:_ZN7Iex_3_013EdestroyedExcC1ERKS0_
libIex-3_0.so.29:_ZN7Iex_3_013EdestroyedExcC1ERNSt7__cxx1118basic_stringstreamIcSt11char_traitsIcESaIcEEE
libIex-3_0.so.29:_ZN7Iex_3_013EdestroyedExcC1Ev
libIex-3_0.so.29:_ZN7Iex_3_013EdestroyedExcC2EONSt7__cxx1112basic_stringIcSt11char_traitsIcESaIcEEE
libIex-3_0.so.29:_ZN7Iex_3_013EdestroyedExcC2EOS0_
libIex-3_0.so.29:_ZN7Iex_3_013EdestroyedExcC2EPKc
libIex-3_0.so.29:_ZN7Iex_3_013EdestroyedExcC2ERKNSt7__cxx1112basic_stringIcSt11char_traitsIcESaIcEEE
libIex-3_0.so.29:_ZN7Iex_3_013EdestroyedExcC2ERKS0_
libIex-3_0.so.29:_ZN7Iex_3_013EdestroyedExcC2ERNSt7__cxx1118basic_stringstreamIcSt11char_traitsIcESaIcEEE
libIex-3_0.so.29:_ZN7Iex_3_013EdestroyedExcC2Ev
libIex-3_0.so.29:_ZN7Iex_3_013EdestroyedExcD0Ev
libIex-3_0.so.29:_ZN7Iex_3_013EdestroyedExcD1Ev
libIex-3_0.so.29:_ZN7Iex_3_013EdestroyedExcD2Ev
libIex-3_0.so.29:_ZN7Iex_3_013EdestroyedExcaSEOS0_
libIex-3_0.so.29:_ZN7Iex_3_013EdestroyedExcaSERS0_
libIex-3_0.so.29:_ZN7Iex_3_013EgrouploopExcC1EONSt7__cxx1112basic_stringIcSt11char_traitsIcESaIcEEE
libIex-3_0.so.29:_ZN7Iex_3_013EgrouploopExcC1EOS0_
libIex-3_0.so.29:_ZN7Iex_3_013EgrouploopExcC1EPKc
libIex-3_0.so.29:_ZN7Iex_3_013EgrouploopExcC1ERKNSt7__cxx1112basic_stringIcSt11char_traitsIcESaIcEEE
libIex-3_0.so.29:_ZN7Iex_3_013EgrouploopExcC1ERKS0_
libIex-3_0.so.29:_ZN7Iex_3_013EgrouploopExcC1ERNSt7__cxx1118basic_stringstreamIcSt11char_traitsIcESaIcEEE
libIex-3_0.so.29:_ZN7Iex_3_013EgrouploopExcC1Ev
libIex-3_0.so.29:_ZN7Iex_3_013EgrouploopExcC2EONSt7__cxx1112basic_stringIcSt11char_traitsIcESaIcEEE
libIex-3_0.so.29:_ZN7Iex_3_013EgrouploopExcC2EOS0_
libIex-3_0.so.29:_ZN7Iex_3_013EgrouploopExcC2EPKc
libIex-3_0.so.29:_ZN7Iex_3_013EgrouploopExcC2ERKNSt7__cxx1112basic_stringIcSt11char_traitsIcESaIcEEE
libIex-3_0.so.29:_ZN7Iex_3_013EgrouploopExcC2ERKS0_
libIex-3_0.so.29:_ZN7Iex_3_013EgrouploopExcC2ERNSt7__cxx1118basic_stringstreamIcSt11char_traitsIcESaIcEEE
libIex-3_0.so.29:_ZN7Iex_3_013EgrouploopExcC2Ev
libIex-3_0.so.29:_ZN7Iex_3_013EgrouploopExcD0Ev
libIex-3_0.so.29:_ZN7Iex_3_013EgrouploopExcD1Ev
libIex-3_0.so.29:_ZN7Iex_3_013EgrouploopExcD2Ev
libIex-3_0.so.29:_ZN7Iex_3_013EgrouploopExcaSEOS0_
libIex-3_0.so.29:_ZN7Iex_3_013EgrouploopExcaSERS0_
libIex-3_0.so.29:_ZN7Iex_3_013EinvalmodeExcC1EONSt7__cxx1112basic_stringIcSt11char_traitsIcESaIcEEE
libIex-3_0.so.29:_ZN7Iex_3_013EinvalmodeExcC1EOS0_
libIex-3_0.so.29:_ZN7Iex_3_013EinvalmodeExcC1EPKc
libIex-3_0.so.29:_ZN7Iex_3_013EinvalmodeExcC1ERKNSt7__cxx1112basic_stringIcSt11char_traitsIcESaIcEEE
libIex-3_0.so.29:_ZN7Iex_3_013EinvalmodeExcC1ERKS0_
libIex-3_0.so.29:_ZN7Iex_3_013EinvalmodeExcC1ERNSt7__cxx1118basic_stringstreamIcSt11char_traitsIcESaIcEEE
libIex-3_0.so.29:_ZN7Iex_3_013EinvalmodeExcC1Ev
libIex-3_0.so.29:_ZN7Iex_3_013EinvalmodeExcC2EONSt7__cxx1112basic_stringIcSt11char_traitsIcESaIcEEE
libIex-3_0.so.29:_ZN7Iex_3_013EinvalmodeExcC2EOS0_
libIex-3_0.so.29:_ZN7Iex_3_013EinvalmodeExcC2EPKc
libIex-3_0.so.29:_ZN7Iex_3_013EinvalmodeExcC2ERKNSt7__cxx1112basic_stringIcSt11char_traitsIcESaIcEEE
libIex-3_0.so.29:_ZN7Iex_3_013EinvalmodeExcC2ERKS0_
libIex-3_0.so.29:_ZN7Iex_3_013EinvalmodeExcC2ERNSt7__cxx1118basic_stringstreamIcSt11char_traitsIcESaIcEEE
libIex-3_0.so.29:_ZN7Iex_3_013EinvalmodeExcC2Ev
libIex-3_0.so.29:_ZN7Iex_3_013EinvalmodeExcD0Ev
libIex-3_0.so.29:_ZN7Iex_3_013EinvalmodeExcD1Ev
libIex-3_0.so.29:_ZN7Iex_3_013EinvalmodeExcD2Ev
libIex-3_0.so.29:_ZN7Iex_3_013EinvalmodeExcaSEOS0_
libIex-3_0.so.29:_ZN7Iex_3_013EinvalmodeExcaSERS0_
libIex-3_0.so.29:_ZN7Iex_3_013EinvaltimeExcC1EONSt7__cxx1112basic_stringIcSt11char_traitsIcESaIcEEE
libIex-3_0.so.29:_ZN7Iex_3_013EinvaltimeExcC1EOS0_
libIex-3_0.so.29:_ZN7Iex_3_013EinvaltimeExcC1EPKc
libIex-3_0.so.29:_ZN7Iex_3_013EinvaltimeExcC1ERKNSt7__cxx1112basic_stringIcSt11char_traitsIcESaIcEEE
libIex-3_0.so.29:_ZN7Iex_3_013EinvaltimeExcC1ERKS0_
libIex-3_0.so.29:_ZN7Iex_3_013EinvaltimeExcC1ERNSt7__cxx1118basic_stringstreamIcSt11char_traitsIcESaIcEEE
libIex-3_0.so.29:_ZN7Iex_3_013EinvaltimeExcC1Ev
libIex-3_0.so.29:_ZN7Iex_3_013EinvaltimeExcC2EONSt7__cxx1112basic_stringIcSt11char_traitsIcESaIcEEE
libIex-3_0.so.29:_ZN7Iex_3_013EinvaltimeExcC2EOS0_
libIex-3_0.so.29:_ZN7Iex_3_013EinvaltimeExcC2EPKc
libIex-3_0.so.29:_ZN7Iex_3_013EinvaltimeExcC2ERKNSt7__cxx1112basic_stringIcSt11char_traitsIcESaIcEEE
libIex-3_0.so.29:_ZN7Iex_3_013EinvaltimeExcC2ERKS0_
libIex-3_0.so.29:_ZN7Iex_3_013EinvaltimeExcC2ERNSt7__cxx1118basic_stringstreamIcSt11char_traitsIcESaIcEEE
libIex-3_0.so.29:_ZN7Iex_3_013EinvaltimeExcC2Ev
libIex-3_0.so.29:_ZN7Iex_3_013EinvaltimeExcD0Ev
libIex-3_0.so.29:_ZN7Iex_3_013EinvaltimeExcD1Ev
libIex-3_0.so.29:_ZN7Iex_3_013EinvaltimeExcD2Ev
libIex-3_0.so.29:_ZN7Iex_3_013EinvaltimeExcaSEOS0_
libIex-3_0.so.29:_ZN7Iex_3_013EinvaltimeExcaSERS0_
libIex-3_0.so.29:_ZN7Iex_3_013EnfsremoteExcC1EONSt7__cxx1112basic_stringIcSt11char_traitsIcESaIcEEE
libIex-3_0.so.29:_ZN7Iex_3_013EnfsremoteExcC1EOS0_
libIex-3_0.so.29:_ZN7Iex_3_013EnfsremoteExcC1EPKc
libIex-3_0.so.29:_ZN7Iex_3_013EnfsremoteExcC1ERKNSt7__cxx1112basic_stringIcSt11char_traitsIcESaIcEEE
libIex-3_0.so.29:_ZN7Iex_3_013EnfsremoteExcC1ERKS0_
libIex-3_0.so.29:_ZN7Iex_3_013EnfsremoteExcC1ERNSt7__cxx1118basic_stringstreamIcSt11char_traitsIcESaIcEEE
libIex-3_0.so.29:_ZN7Iex_3_013EnfsremoteExcC1Ev
libIex-3_0.so.29:_ZN7Iex_3_013EnfsremoteExcC2EONSt7__cxx1112basic_stringIcSt11char_traitsIcESaIcEEE
libIex-3_0.so.29:_ZN7Iex_3_013EnfsremoteExcC2EOS0_
libIex-3_0.so.29:_ZN7Iex_3_013EnfsremoteExcC2EPKc
libIex-3_0.so.29:_ZN7Iex_3_013EnfsremoteExcC2ERKNSt7__cxx1112basic_stringIcSt11char_traitsIcESaIcEEE
libIex-3_0.so.29:_ZN7Iex_3_013EnfsremoteExcC2ERKS0_
libIex-3_0.so.29:_ZN7Iex_3_013EnfsremoteExcC2ERNSt7__cxx1118basic_stringstreamIcSt11char_traitsIcESaIcEEE
libIex-3_0.so.29:_ZN7Iex_3_013EnfsremoteExcC2Ev
libIex-3_0.so.29:_ZN7Iex_3_013EnfsremoteExcD0Ev
libIex-3_0.so.29:_ZN7Iex_3_013EnfsremoteExcD1Ev
libIex-3_0.so.29:_ZN7Iex_3_013EnfsremoteExcD2Ev
libIex-3_0.so.29:_ZN7Iex_3_013EnfsremoteExcaSEOS0_
libIex-3_0.so.29:_ZN7Iex_3_013EnfsremoteExcaSERS0_
libIex-3_0.so.29:_ZN7Iex_3_013EnolimfileExcC1EONSt7__cxx1112basic_stringIcSt11char_traitsIcESaIcEEE
libIex-3_0.so.29:_ZN7Iex_3_013EnolimfileExcC1EOS0_
libIex-3_0.so.29:_ZN7Iex_3_013EnolimfileExcC1EPKc
libIex-3_0.so.29:_ZN7Iex_3_013EnolimfileExcC1ERKNSt7__cxx1112basic_stringIcSt11char_traitsIcESaIcEEE
libIex-3_0.so.29:_ZN7Iex_3_013EnolimfileExcC1ERKS0_
libIex-3_0.so.29:_ZN7Iex_3_013EnolimfileExcC1ERNSt7__cxx1118basic_stringstreamIcSt11char_traitsIcESaIcEEE
libIex-3_0.so.29:_ZN7Iex_3_013EnolimfileExcC1Ev
libIex-3_0.so.29:_ZN7Iex_3_013EnolimfileExcC2EONSt7__cxx1112basic_stringIcSt11char_traitsIcESaIcEEE
libIex-3_0.so.29:_ZN7Iex_3_013EnolimfileExcC2EOS0_
libIex-3_0.so.29:_ZN7Iex_3_013EnolimfileExcC2EPKc
libIex-3_0.so.29:_ZN7Iex_3_013EnolimfileExcC2ERKNSt7__cxx1112basic_stringIcSt11char_traitsIcESaIcEEE
libIex-3_0.so.29:_ZN7Iex_3_013EnolimfileExcC2ERKS0_
libIex-3_0.so.29:_ZN7Iex_3_013EnolimfileExcC2ERNSt7__cxx1118basic_stringstreamIcSt11char_traitsIcESaIcEEE
libIex-3_0.so.29:_ZN7Iex_3_013EnolimfileExcC2Ev
libIex-3_0.so.29:_ZN7Iex_3_013EnolimfileExcD0Ev
libIex-3_0.so.29:_ZN7Iex_3_013EnolimfileExcD1Ev
libIex-3_0.so.29:_ZN7Iex_3_013EnolimfileExcD2Ev
libIex-3_0.so.29:_ZN7Iex_3_013EnolimfileExcaSEOS0_
libIex-3_0.so.29:_ZN7Iex_3_013EnolimfileExcaSERS0_
libIex-3_0.so.29:_ZN7Iex_3_013EnotjoinedExcC1EONSt7__cxx1112basic_stringIcSt11char_traitsIcESaIcEEE
libIex-3_0.so.29:_ZN7Iex_3_013EnotjoinedExcC1EOS0_
libIex-3_0.so.29:_ZN7Iex_3_013EnotjoinedExcC1EPKc
libIex-3_0.so.29:_ZN7Iex_3_013EnotjoinedExcC1ERKNSt7__cxx1112basic_stringIcSt11char_traitsIcESaIcEEE
libIex-3_0.so.29:_ZN7Iex_3_013EnotjoinedExcC1ERKS0_
libIex-3_0.so.29:_ZN7Iex_3_013EnotjoinedExcC1ERNSt7__cxx1118basic_stringstreamIcSt11char_traitsIcESaIcEEE
libIex-3_0.so.29:_ZN7Iex_3_013EnotjoinedExcC1Ev
libIex-3_0.so.29:_ZN7Iex_3_013EnotjoinedExcC2EONSt7__cxx1112basic_stringIcSt11char_traitsIcESaIcEEE
libIex-3_0.so.29:_ZN7Iex_3_013EnotjoinedExcC2EOS0_
libIex-3_0.so.29:_ZN7Iex_3_013EnotjoinedExcC2EPKc
libIex-3_0.so.29:_ZN7Iex_3_013EnotjoinedExcC2ERKNSt7__cxx1112basic_stringIcSt11char_traitsIcESaIcEEE
libIex-3_0.so.29:_ZN7Iex_3_013EnotjoinedExcC2ERKS0_
libIex-3_0.so.29:_ZN7Iex_3_013EnotjoinedExcC2ERNSt7__cxx1118basic_stringstreamIcSt11char_traitsIcESaIcEEE
libIex-3_0.so.29:_ZN7Iex_3_013EnotjoinedExcC2Ev
libIex-3_0.so.29:_ZN7Iex_3_013EnotjoinedExcD0Ev
libIex-3_0.so.29:_ZN7Iex_3_013EnotjoinedExcD1Ev
libIex-3_0.so.29:_ZN7Iex_3_013EnotjoinedExcD2Ev
libIex-3_0.so.29:_ZN7Iex_3_013EnotjoinedExcaSEOS0_
libIex-3_0.so.29:_ZN7Iex_3_013EnotjoinedExcaSERS0_
libIex-3_0.so.29:_ZN7Iex_3_013EopnotsuppExcC1EONSt7__cxx1112basic_stringIcSt11char_traitsIcESaIcEEE
libIex-3_0.so.29:_ZN7Iex_3_013EopnotsuppExcC1EOS0_
libIex-3_0.so.29:_ZN7Iex_3_013EopnotsuppExcC1EPKc
libIex-3_0.so.29:_ZN7Iex_3_013EopnotsuppExcC1ERKNSt7__cxx1112basic_stringIcSt11char_traitsIcESaIcEEE
libIex-3_0.so.29:_ZN7Iex_3_013EopnotsuppExcC1ERKS0_
libIex-3_0.so.29:_ZN7Iex_3_013EopnotsuppExcC1ERNSt7__cxx1118basic_stringstreamIcSt11char_traitsIcESaIcEEE
libIex-3_0.so.29:_ZN7Iex_3_013EopnotsuppExcC1Ev
libIex-3_0.so.29:_ZN7Iex_3_013EopnotsuppExcC2EONSt7__cxx1112basic_stringIcSt11char_traitsIcESaIcEEE
libIex-3_0.so.29:_ZN7Iex_3_013EopnotsuppExcC2EOS0_
libIex-3_0.so.29:_ZN7Iex_3_013EopnotsuppExcC2EPKc
libIex-3_0.so.29:_ZN7Iex_3_013EopnotsuppExcC2ERKNSt7__cxx1112basic_stringIcSt11char_traitsIcESaIcEEE
libIex-3_0.so.29:_ZN7Iex_3_013EopnotsuppExcC2ERKS0_
libIex-3_0.so.29:_ZN7Iex_3_013EopnotsuppExcC2ERNSt7__cxx1118basic_stringstreamIcSt11char_traitsIcESaIcEEE
libIex-3_0.so.29:_ZN7Iex_3_013EopnotsuppExcC2Ev
libIex-3_0.so.29:_ZN7Iex_3_013EopnotsuppExcD0Ev
libIex-3_0.so.29:_ZN7Iex_3_013EopnotsuppExcD1Ev
libIex-3_0.so.29:_ZN7Iex_3_013EopnotsuppExcD2Ev
libIex-3_0.so.29:_ZN7Iex_3_013EopnotsuppExcaSEOS0_
libIex-3_0.so.29:_ZN7Iex_3_013EopnotsuppExcaSERS0_
libIex-3_0.so.29:_ZN7Iex_3_013EprototypeExcC1EONSt7__cxx1112basic_stringIcSt11char_traitsIcESaIcEEE
libIex-3_0.so.29:_ZN7Iex_3_013EprototypeExcC1EOS0_
libIex-3_0.so.29:_ZN7Iex_3_013EprototypeExcC1EPKc
libIex-3_0.so.29:_ZN7Iex_3_013EprototypeExcC1ERKNSt7__cxx1112basic_stringIcSt11char_traitsIcESaIcEEE
libIex-3_0.so.29:_ZN7Iex_3_013EprototypeExcC1ERKS0_
libIex-3_0.so.29:_ZN7Iex_3_013EprototypeExcC1ERNSt7__cxx1118basic_stringstreamIcSt11char_traitsIcESaIcEEE
libIex-3_0.so.29:_ZN7Iex_3_013EprototypeExcC1Ev
libIex-3_0.so.29:_ZN7Iex_3_013EprototypeExcC2EONSt7__cxx1112basic_stringIcSt11char_traitsIcESaIcEEE
libIex-3_0.so.29:_ZN7Iex_3_013EprototypeExcC2EOS0_
libIex-3_0.so.29:_ZN7Iex_3_013EprototypeExcC2EPKc
libIex-3_0.so.29:_ZN7Iex_3_013EprototypeExcC2ERKNSt7__cxx1112basic_stringIcSt11char_traitsIcESaIcEEE
libIex-3_0.so.29:_ZN7Iex_3_013EprototypeExcC2ERKS0_
libIex-3_0.so.29:_ZN7Iex_3_013EprototypeExcC2ERNSt7__cxx1118basic_stringstreamIcSt11char_traitsIcESaIcEEE
libIex-3_0.so.29:_ZN7Iex_3_013EprototypeExcC2Ev
libIex-3_0.so.29:_ZN7Iex_3_013EprototypeExcD0Ev
libIex-3_0.so.29:_ZN7Iex_3_013EprototypeExcD1Ev
libIex-3_0.so.29:_ZN7Iex_3_013EprototypeExcD2Ev
libIex-3_0.so.29:_ZN7Iex_3_013EprototypeExcaSEOS0_
libIex-3_0.so.29:_ZN7Iex_3_013EprototypeExcaSERS0_
libIex-3_0.so.29:_ZN7Iex_3_013throwErrnoExcERKNSt7__cxx1112basic_stringIcSt11char_traitsIcESaIcEEE
libIex-3_0.so.29:_ZN7Iex_3_013throwErrnoExcERKNSt7__cxx1112basic_stringIcSt11char_traitsIcESaIcEEEi
libIex-3_0.so.29:_ZN7Iex_3_013throwErrnoExcEv
libIex-3_0.so.29:_ZN7Iex_3_014EcantextentExcC1EONSt7__cxx1112basic_stringIcSt11char_traitsIcESaIcEEE
libIex-3_0.so.29:_ZN7Iex_3_014EcantextentExcC1EOS0_
libIex-3_0.so.29:_ZN7Iex_3_014EcantextentExcC1EPKc
libIex-3_0.so.29:_ZN7Iex_3_014EcantextentExcC1ERKNSt7__cxx1112basic_stringIcSt11char_traitsIcESaIcEEE
libIex-3_0.so.29:_ZN7Iex_3_014EcantextentExcC1ERKS0_
libIex-3_0.so.29:_ZN7Iex_3_014EcantextentExcC1ERNSt7__cxx1118basic_stringstreamIcSt11char_traitsIcESaIcEEE
libIex-3_0.so.29:_ZN7Iex_3_014EcantextentExcC1Ev
libIex-3_0.so.29:_ZN7Iex_3_014EcantextentExcC2EONSt7__cxx1112basic_stringIcSt11char_traitsIcESaIcEEE
libIex-3_0.so.29:_ZN7Iex_3_014EcantextentExcC2EOS0_
libIex-3_0.so.29:_ZN7Iex_3_014EcantextentExcC2EPKc
libIex-3_0.so.29:_ZN7Iex_3_014EcantextentExcC2ERKNSt7__cxx1112basic_stringIcSt11char_traitsIcESaIcEEE
libIex-3_0.so.29:_ZN7Iex_3_014EcantextentExcC2ERKS0_
libIex-3_0.so.29:_ZN7Iex_3_014EcantextentExcC2ERNSt7__cxx1118basic_stringstreamIcSt11char_traitsIcESaIcEEE
libIex-3_0.so.29:_ZN7Iex_3_014EcantextentExcC2Ev
libIex-3_0.so.29:_ZN7Iex_3_014EcantextentExcD0Ev
libIex-3_0.so.29:_ZN7Iex_3_014EcantextentExcD1Ev
libIex-3_0.so.29:_ZN7Iex_3_014EcantextentExcD2Ev
libIex-3_0.so.29:_ZN7Iex_3_014EcantextentExcaSEOS0_
libIex-3_0.so.29:_ZN7Iex_3_014EcantextentExcaSERS0_
libIex-3_0.so.29:_ZN7Iex_3_014EcontrollerExcC1EONSt7__cxx1112basic_stringIcSt11char_traitsIcESaIcEEE
libIex-3_0.so.29:_ZN7Iex_3_014EcontrollerExcC1EOS0_
libIex-3_0.so.29:_ZN7Iex_3_014EcontrollerExcC1EPKc
libIex-3_0.so.29:_ZN7Iex_3_014EcontrollerExcC1ERKNSt7__cxx1112basic_stringIcSt11char_traitsIcESaIcEEE
libIex-3_0.so.29:_ZN7Iex_3_014EcontrollerExcC1ERKS0_
libIex-3_0.so.29:_ZN7Iex_3_014EcontrollerExcC1ERNSt7__cxx1118basic_stringstreamIcSt11char_traitsIcESaIcEEE
libIex-3_0.so.29:_ZN7Iex_3_014EcontrollerExcC1Ev
libIex-3_0.so.29:_ZN7Iex_3_014EcontrollerExcC2EONSt7__cxx1112basic_stringIcSt11char_traitsIcESaIcEEE
libIex-3_0.so.29:_ZN7Iex_3_014EcontrollerExcC2EOS0_
libIex-3_0.so.29:_ZN7Iex_3_014EcontrollerExcC2EPKc
libIex-3_0.so.29:_ZN7Iex_3_014EcontrollerExcC2ERKNSt7__cxx1112basic_stringIcSt11char_traitsIcESaIcEEE
libIex-3_0.so.29:_ZN7Iex_3_014EcontrollerExcC2ERKS0_
libIex-3_0.so.29:_ZN7Iex_3_014EcontrollerExcC2ERNSt7__cxx1118basic_stringstreamIcSt11char_traitsIcESaIcEEE
libIex-3_0.so.29:_ZN7Iex_3_014EcontrollerExcC2Ev
libIex-3_0.so.29:_ZN7Iex_3_014EcontrollerExcD0Ev
libIex-3_0.so.29:_ZN7Iex_3_014EcontrollerExcD1Ev
libIex-3_0.so.29:_ZN7Iex_3_014EcontrollerExcD2Ev
libIex-3_0.so.29:_ZN7Iex_3_014EcontrollerExcaSEOS0_
libIex-3_0.so.29:_ZN7Iex_3_014EcontrollerExcaSERS0_
libIex-3_0.so.29:_ZN7Iex_3_014EendofminorExcC1EONSt7__cxx1112basic_stringIcSt11char_traitsIcESaIcEEE
libIex-3_0.so.29:_ZN7Iex_3_014EendofminorExcC1EOS0_
libIex-3_0.so.29:_ZN7Iex_3_014EendofminorExcC1EPKc
libIex-3_0.so.29:_ZN7Iex_3_014EendofminorExcC1ERKNSt7__cxx1112basic_stringIcSt11char_traitsIcESaIcEEE
libIex-3_0.so.29:_ZN7Iex_3_014EendofminorExcC1ERKS0_
libIex-3_0.so.29:_ZN7Iex_3_014EendofminorExcC1ERNSt7__cxx1118basic_stringstreamIcSt11char_traitsIcESaIcEEE
libIex-3_0.so.29:_ZN7Iex_3_014EendofminorExcC1Ev
libIex-3_0.so.29:_ZN7Iex_3_014EendofminorExcC2EONSt7__cxx1112basic_stringIcSt11char_traitsIcESaIcEEE
libIex-3_0.so.29:_ZN7Iex_3_014EendofminorExcC2EOS0_
libIex-3_0.so.29:_ZN7Iex_3_014EendofminorExcC2EPKc
libIex-3_0.so.29:_ZN7Iex_3_014EendofminorExcC2ERKNSt7__cxx1112basic_stringIcSt11char_traitsIcESaIcEEE
libIex-3_0.so.29:_ZN7Iex_3_014EendofminorExcC2ERKS0_
libIex-3_0.so.29:_ZN7Iex_3_014EendofminorExcC2ERNSt7__cxx1118basic_stringstreamIcSt11char_traitsIcESaIcEEE
libIex-3_0.so.29:_ZN7Iex_3_014EendofminorExcC2Ev
libIex-3_0.so.29:_ZN7Iex_3_014EendofminorExcD0Ev
libIex-3_0.so.29:_ZN7Iex_3_014EendofminorExcD1Ev
libIex-3_0.so.29:_ZN7Iex_3_014EendofminorExcD2Ev
libIex-3_0.so.29:_ZN7Iex_3_014EendofminorExcaSEOS0_
libIex-3_0.so.29:_ZN7Iex_3_014EendofminorExcaSERS0_
libIex-3_0.so.29:_ZN7Iex_3_014EinprogressExcC1EONSt7__cxx1112basic_stringIcSt11char_traitsIcESaIcEEE
libIex-3_0.so.29:_ZN7Iex_3_014EinprogressExcC1EOS0_
libIex-3_0.so.29:_ZN7Iex_3_014EinprogressExcC1EPKc
libIex-3_0.so.29:_ZN7Iex_3_014EinprogressExcC1ERKNSt7__cxx1112basic_stringIcSt11char_traitsIcESaIcEEE
libIex-3_0.so.29:_ZN7Iex_3_014EinprogressExcC1ERKS0_
libIex-3_0.so.29:_ZN7Iex_3_014EinprogressExcC1ERNSt7__cxx1118basic_stringstreamIcSt11char_traitsIcESaIcEEE
libIex-3_0.so.29:_ZN7Iex_3_014EinprogressExcC1Ev
libIex-3_0.so.29:_ZN7Iex_3_014EinprogressExcC2EONSt7__cxx1112basic_stringIcSt11char_traitsIcESaIcEEE
libIex-3_0.so.29:_ZN7Iex_3_014EinprogressExcC2EOS0_
libIex-3_0.so.29:_ZN7Iex_3_014EinprogressExcC2EPKc
libIex-3_0.so.29:_ZN7Iex_3_014EinprogressExcC2ERKNSt7__cxx1112basic_stringIcSt11char_traitsIcESaIcEEE
libIex-3_0.so.29:_ZN7Iex_3_014EinprogressExcC2ERKS0_
libIex-3_0.so.29:_ZN7Iex_3_014EinprogressExcC2ERNSt7__cxx1118basic_stringstreamIcSt11char_traitsIcESaIcEEE
libIex-3_0.so.29:_ZN7Iex_3_014EinprogressExcC2Ev
libIex-3_0.so.29:_ZN7Iex_3_014EinprogressExcD0Ev
libIex-3_0.so.29:_ZN7Iex_3_014EinprogressExcD1Ev
libIex-3_0.so.29:_ZN7Iex_3_014EinprogressExcD2Ev
libIex-3_0.so.29:_ZN7Iex_3_014EinprogressExcaSEOS0_
libIex-3_0.so.29:_ZN7Iex_3_014EinprogressExcaSERS0_
libIex-3_0.so.29:_ZN7Iex_3_014EinvalstateExcC1EONSt7__cxx1112basic_stringIcSt11char_traitsIcESaIcEEE
libIex-3_0.so.29:_ZN7Iex_3_014EinvalstateExcC1EOS0_
libIex-3_0.so.29:_ZN7Iex_3_014EinvalstateExcC1EPKc
libIex-3_0.so.29:_ZN7Iex_3_014EinvalstateExcC1ERKNSt7__cxx1112basic_stringIcSt11char_traitsIcESaIcEEE
libIex-3_0.so.29:_ZN7Iex_3_014EinvalstateExcC1ERKS0_
libIex-3_0.so.29:_ZN7Iex_3_014EinvalstateExcC1ERNSt7__cxx1118basic_stringstreamIcSt11char_traitsIcESaIcEEE
libIex-3_0.so.29:_ZN7Iex_3_014EinvalstateExcC1Ev
libIex-3_0.so.29:_ZN7Iex_3_014EinvalstateExcC2EONSt7__cxx1112basic_stringIcSt11char_traitsIcESaIcEEE
libIex-3_0.so.29:_ZN7Iex_3_014EinvalstateExcC2EOS0_
libIex-3_0.so.29:_ZN7Iex_3_014EinvalstateExcC2EPKc
libIex-3_0.so.29:_ZN7Iex_3_014EinvalstateExcC2ERKNSt7__cxx1112basic_stringIcSt11char_traitsIcESaIcEEE
libIex-3_0.so.29:_ZN7Iex_3_014EinvalstateExcC2ERKS0_
libIex-3_0.so.29:_ZN7Iex_3_014EinvalstateExcC2ERNSt7__cxx1118basic_stringstreamIcSt11char_traitsIcESaIcEEE
libIex-3_0.so.29:_ZN7Iex_3_014EinvalstateExcC2Ev
libIex-3_0.so.29:_ZN7Iex_3_014EinvalstateExcD0Ev
libIex-3_0.so.29:_ZN7Iex_3_014EinvalstateExcD1Ev
libIex-3_0.so.29:_ZN7Iex_3_014EinvalstateExcD2Ev
libIex-3_0.so.29:_ZN7Iex_3_014EinvalstateExcaSEOS0_
libIex-3_0.so.29:_ZN7Iex_3_014EinvalstateExcaSERS0_
libIex-3_0.so.29:_ZN7Iex_3_014EnetunreachExcC1EONSt7__cxx1112basic_stringIcSt11char_traitsIcESaIcEEE
libIex-3_0.so.29:_ZN7Iex_3_014EnetunreachExcC1EOS0_
libIex-3_0.so.29:_ZN7Iex_3_014EnetunreachExcC1EPKc
libIex-3_0.so.29:_ZN7Iex_3_014EnetunreachExcC1ERKNSt7__cxx1112basic_stringIcSt11char_traitsIcESaIcEEE
libIex-3_0.so.29:_ZN7Iex_3_014EnetunreachExcC1ERKS0_
libIex-3_0.so.29:_ZN7Iex_3_014EnetunreachExcC1ERNSt7__cxx1118basic_stringstreamIcSt11char_traitsIcESaIcEEE
libIex-3_0.so.29:_ZN7Iex_3_014EnetunreachExcC1Ev
libIex-3_0.so.29:_ZN7Iex_3_014EnetunreachExcC2EONSt7__cxx1112basic_stringIcSt11char_traitsIcESaIcEEE
libIex-3_0.so.29:_ZN7Iex_3_014EnetunreachExcC2EOS0_
libIex-3_0.so.29:_ZN7Iex_3_014EnetunreachExcC2EPKc
libIex-3_0.so.29:_ZN7Iex_3_014EnetunreachExcC2ERKNSt7__cxx1112basic_stringIcSt11char_traitsIcESaIcEEE
libIex-3_0.so.29:_ZN7Iex_3_014EnetunreachExcC2ERKS0_
libIex-3_0.so.29:_ZN7Iex_3_014EnetunreachExcC2ERNSt7__cxx1118basic_stringstreamIcSt11char_traitsIcESaIcEEE
libIex-3_0.so.29:_ZN7Iex_3_014EnetunreachExcC2Ev
libIex-3_0.so.29:_ZN7Iex_3_014EnetunreachExcD0Ev
libIex-3_0.so.29:_ZN7Iex_3_014EnetunreachExcD1Ev
libIex-3_0.so.29:_ZN7Iex_3_014EnetunreachExcD2Ev
libIex-3_0.so.29:_ZN7Iex_3_014EnetunreachExcaSEOS0_
libIex-3_0.so.29:_ZN7Iex_3_014EnetunreachExcaSERS0_
libIex-3_0.so.29:_ZN7Iex_3_014EnoprotooptExcC1EONSt7__cxx1112basic_stringIcSt11char_traitsIcESaIcEEE
libIex-3_0.so.29:_ZN7Iex_3_014EnoprotooptExcC1EOS0_
libIex-3_0.so.29:_ZN7Iex_3_014EnoprotooptExcC1EPKc
libIex-3_0.so.29:_ZN7Iex_3_014EnoprotooptExcC1ERKNSt7__cxx1112basic_stringIcSt11char_traitsIcESaIcEEE
libIex-3_0.so.29:_ZN7Iex_3_014EnoprotooptExcC1ERKS0_
libIex-3_0.so.29:_ZN7Iex_3_014EnoprotooptExcC1ERNSt7__cxx1118basic_stringstreamIcSt11char_traitsIcESaIcEEE
libIex-3_0.so.29:_ZN7Iex_3_014EnoprotooptExcC1Ev
libIex-3_0.so.29:_ZN7Iex_3_014EnoprotooptExcC2EONSt7__cxx1112basic_stringIcSt11char_traitsIcESaIcEEE
libIex-3_0.so.29:_ZN7Iex_3_014EnoprotooptExcC2EOS0_
libIex-3_0.so.29:_ZN7Iex_3_014EnoprotooptExcC2EPKc
libIex-3_0.so.29:_ZN7Iex_3_014EnoprotooptExcC2ERKNSt7__cxx1112basic_stringIcSt11char_traitsIcESaIcEEE
libIex-3_0.so.29:_ZN7Iex_3_014EnoprotooptExcC2ERKS0_
libIex-3_0.so.29:_ZN7Iex_3_014EnoprotooptExcC2ERNSt7__cxx1118basic_stringstreamIcSt11char_traitsIcESaIcEEE
libIex-3_0.so.29:_ZN7Iex_3_014EnoprotooptExcC2Ev
libIex-3_0.so.29:_ZN7Iex_3_014EnoprotooptExcD0Ev
libIex-3_0.so.29:_ZN7Iex_3_014EnoprotooptExcD1Ev
libIex-3_0.so.29:_ZN7Iex_3_014EnoprotooptExcD2Ev
libIex-3_0.so.29:_ZN7Iex_3_014EnoprotooptExcaSEOS0_
libIex-3_0.so.29:_ZN7Iex_3_014EnoprotooptExcaSERS0_
libIex-3_0.so.29:_ZN7Iex_3_014EnotstoppedExcC1EONSt7__cxx1112basic_stringIcSt11char_traitsIcESaIcEEE
libIex-3_0.so.29:_ZN7Iex_3_014EnotstoppedExcC1EOS0_
libIex-3_0.so.29:_ZN7Iex_3_014EnotstoppedExcC1EPKc
libIex-3_0.so.29:_ZN7Iex_3_014EnotstoppedExcC1ERKNSt7__cxx1112basic_stringIcSt11char_traitsIcESaIcEEE
libIex-3_0.so.29:_ZN7Iex_3_014EnotstoppedExcC1ERKS0_
libIex-3_0.so.29:_ZN7Iex_3_014EnotstoppedExcC1ERNSt7__cxx1118basic_stringstreamIcSt11char_traitsIcESaIcEEE
libIex-3_0.so.29:_ZN7Iex_3_014EnotstoppedExcC1Ev
libIex-3_0.so.29:_ZN7Iex_3_014EnotstoppedExcC2EONSt7__cxx1112basic_stringIcSt11char_traitsIcESaIcEEE
libIex-3_0.so.29:_ZN7Iex_3_014EnotstoppedExcC2EOS0_
libIex-3_0.so.29:_ZN7Iex_3_014EnotstoppedExcC2EPKc
libIex-3_0.so.29:_ZN7Iex_3_014EnotstoppedExcC2ERKNSt7__cxx1112basic_stringIcSt11char_traitsIcESaIcEEE
libIex-3_0.so.29:_ZN7Iex_3_014EnotstoppedExcC2ERKS0_
libIex-3_0.so.29:_ZN7Iex_3_014EnotstoppedExcC2ERNSt7__cxx1118basic_stringstreamIcSt11char_traitsIcESaIcEEE
libIex-3_0.so.29:_ZN7Iex_3_014EnotstoppedExcC2Ev
libIex-3_0.so.29:_ZN7Iex_3_014EnotstoppedExcD0Ev
libIex-3_0.so.29:_ZN7Iex_3_014EnotstoppedExcD1Ev
libIex-3_0.so.29:_ZN7Iex_3_014EnotstoppedExcD2Ev
libIex-3_0.so.29:_ZN7Iex_3_014EnotstoppedExcaSEOS0_
libIex-3_0.so.29:_ZN7Iex_3_014EnotstoppedExcaSERS0_
libIex-3_0.so.29:_ZN7Iex_3_014InvalidFpOpExcC1EONSt7__cxx1112basic_stringIcSt11char_traitsIcESaIcEEE
libIex-3_0.so.29:_ZN7Iex_3_014InvalidFpOpExcC1EOS0_
libIex-3_0.so.29:_ZN7Iex_3_014InvalidFpOpExcC1EPKc
libIex-3_0.so.29:_ZN7Iex_3_014InvalidFpOpExcC1ERKNSt7__cxx1112basic_stringIcSt11char_traitsIcESaIcEEE
libIex-3_0.so.29:_ZN7Iex_3_014InvalidFpOpExcC1ERKS0_
libIex-3_0.so.29:_ZN7Iex_3_014InvalidFpOpExcC1ERNSt7__cxx1118basic_stringstreamIcSt11char_traitsIcESaIcEEE
libIex-3_0.so.29:_ZN7Iex_3_014InvalidFpOpExcC1Ev
libIex-3_0.so.29:_ZN7Iex_3_014InvalidFpOpExcC2EONSt7__cxx1112basic_stringIcSt11char_traitsIcESaIcEEE
libIex-3_0.so.29:_ZN7Iex_3_014InvalidFpOpExcC2EOS0_
libIex-3_0.so.29:_ZN7Iex_3_014InvalidFpOpExcC2EPKc
libIex-3_0.so.29:_ZN7Iex_3_014InvalidFpOpExcC2ERKNSt7__cxx1112basic_stringIcSt11char_traitsIcESaIcEEE
libIex-3_0.so.29:_ZN7Iex_3_014InvalidFpOpExcC2ERKS0_
libIex-3_0.so.29:_ZN7Iex_3_014InvalidFpOpExcC2ERNSt7__cxx1118basic_stringstreamIcSt11char_traitsIcESaIcEEE
libIex-3_0.so.29:_ZN7Iex_3_014InvalidFpOpExcC2Ev
libIex-3_0.so.29:_ZN7Iex_3_014InvalidFpOpExcD0Ev
libIex-3_0.so.29:_ZN7Iex_3_014InvalidFpOpExcD1Ev
libIex-3_0.so.29:_ZN7Iex_3_014InvalidFpOpExcD2Ev
libIex-3_0.so.29:_ZN7Iex_3_014InvalidFpOpExcaSEOS0_
libIex-3_0.so.29:_ZN7Iex_3_014InvalidFpOpExcaSERS0_
libIex-3_0.so.29:_ZN7Iex_3_014setStackTracerEPFNSt7__cxx1112basic_stringIcSt11char_traitsIcESaIcEEEvE
libIex-3_0.so.29:_ZN7Iex_3_015EafnosupportExcC1EONSt7__cxx1112basic_stringIcSt11char_traitsIcESaIcEEE
libIex-3_0.so.29:_ZN7Iex_3_015EafnosupportExcC1EOS0_
libIex-3_0.so.29:_ZN7Iex_3_015EafnosupportExcC1EPKc
libIex-3_0.so.29:_ZN7Iex_3_015EafnosupportExcC1ERKNSt7__cxx1112basic_stringIcSt11char_traitsIcESaIcEEE
libIex-3_0.so.29:_ZN7Iex_3_015EafnosupportExcC1ERKS0_
libIex-3_0.so.29:_ZN7Iex_3_015EafnosupportExcC1ERNSt7__cxx1118basic_stringstreamIcSt11char_traitsIcESaIcEEE
libIex-3_0.so.29:_ZN7Iex_3_015EafnosupportExcC1Ev
libIex-3_0.so.29:_ZN7Iex_3_015EafnosupportExcC2EONSt7__cxx1112basic_stringIcSt11char_traitsIcESaIcEEE
libIex-3_0.so.29:_ZN7Iex_3_015EafnosupportExcC2EOS0_
libIex-3_0.so.29:_ZN7Iex_3_015EafnosupportExcC2EPKc
libIex-3_0.so.29:_ZN7Iex_3_015EafnosupportExcC2ERKNSt7__cxx1112basic_stringIcSt11char_traitsIcESaIcEEE
libIex-3_0.so.29:_ZN7Iex_3_015EafnosupportExcC2ERKS0_
libIex-3_0.so.29:_ZN7Iex_3_015EafnosupportExcC2ERNSt7__cxx1118basic_stringstreamIcSt11char_traitsIcESaIcEEE
libIex-3_0.so.29:_ZN7Iex_3_015EafnosupportExcC2Ev
libIex-3_0.so.29:_ZN7Iex_3_015EafnosupportExcD0Ev
libIex-3_0.so.29:_ZN7Iex_3_015EafnosupportExcD1Ev
libIex-3_0.so.29:_ZN7Iex_3_015EafnosupportExcD2Ev
libIex-3_0.so.29:_ZN7Iex_3_015EafnosupportExcaSEOS0_
libIex-3_0.so.29:_ZN7Iex_3_015EafnosupportExcaSERS0_
libIex-3_0.so.29:_ZN7Iex_3_015EconnabortedExcC1EONSt7__cxx1112basic_stringIcSt11char_traitsIcESaIcEEE
libIex-3_0.so.29:_ZN7Iex_3_015EconnabortedExcC1EOS0_
libIex-3_0.so.29:_ZN7Iex_3_015EconnabortedExcC1EPKc
libIex-3_0.so.29:_ZN7Iex_3_015EconnabortedExcC1ERKNSt7__cxx1112basic_stringIcSt11char_traitsIcESaIcEEE
libIex-3_0.so.29:_ZN7Iex_3_015EconnabortedExcC1ERKS0_
libIex-3_0.so.29:_ZN7Iex_3_015EconnabortedExcC1ERNSt7__cxx1118basic_stringstreamIcSt11char_traitsIcESaIcEEE
libIex-3_0.so.29:_ZN7Iex_3_015EconnabortedExcC1Ev
libIex-3_0.so.29:_ZN7Iex_3_015EconnabortedExcC2EONSt7__cxx1112basic_stringIcSt11char_traitsIcESaIcEEE
libIex-3_0.so.29:_ZN7Iex_3_015EconnabortedExcC2EOS0_
libIex-3_0.so.29:_ZN7Iex_3_015EconnabortedExcC2EPKc
libIex-3_0.so.29:_ZN7Iex_3_015EconnabortedExcC2ERKNSt7__cxx1112basic_stringIcSt11char_traitsIcESaIcEEE
libIex-3_0.so.29:_ZN7Iex_3_015EconnabortedExcC2ERKS0_
libIex-3_0.so.29:_ZN7Iex_3_015EconnabortedExcC2ERNSt7__cxx1118basic_stringstreamIcSt11char_traitsIcESaIcEEE
libIex-3_0.so.29:_ZN7Iex_3_015EconnabortedExcC2Ev
libIex-3_0.so.29:_ZN7Iex_3_015EconnabortedExcD0Ev
libIex-3_0.so.29:_ZN7Iex_3_015EconnabortedExcD1Ev
libIex-3_0.so.29:_ZN7Iex_3_015EconnabortedExcD2Ev
libIex-3_0.so.29:_ZN7Iex_3_015EconnabortedExcaSEOS0_
libIex-3_0.so.29:_ZN7Iex_3_015EconnabortedExcaSERS0_
libIex-3_0.so.29:_ZN7Iex_3_015EconnrefusedExcC1EONSt7__cxx1112basic_stringIcSt11char_traitsIcESaIcEEE
libIex-3_0.so.29:_ZN7Iex_3_015EconnrefusedExcC1EOS0_
libIex-3_0.so.29:_ZN7Iex_3_015EconnrefusedExcC1EPKc
libIex-3_0.so.29:_ZN7Iex_3_015EconnrefusedExcC1ERKNSt7__cxx1112basic_stringIcSt11char_traitsIcESaIcEEE
libIex-3_0.so.29:_ZN7Iex_3_015EconnrefusedExcC1ERKS0_
libIex-3_0.so.29:_ZN7Iex_3_015EconnrefusedExcC1ERNSt7__cxx1118basic_stringstreamIcSt11char_traitsIcESaIcEEE
libIex-3_0.so.29:_ZN7Iex_3_015EconnrefusedExcC1Ev
libIex-3_0.so.29:_ZN7Iex_3_015EconnrefusedExcC2EONSt7__cxx1112basic_stringIcSt11char_traitsIcESaIcEEE
libIex-3_0.so.29:_ZN7Iex_3_015EconnrefusedExcC2EOS0_
libIex-3_0.so.29:_ZN7Iex_3_015EconnrefusedExcC2EPKc
libIex-3_0.so.29:_ZN7Iex_3_015EconnrefusedExcC2ERKNSt7__cxx1112basic_stringIcSt11char_traitsIcESaIcEEE
libIex-3_0.so.29:_ZN7Iex_3_015EconnrefusedExcC2ERKS0_
libIex-3_0.so.29:_ZN7Iex_3_015EconnrefusedExcC2ERNSt7__cxx1118basic_stringstreamIcSt11char_traitsIcESaIcEEE
libIex-3_0.so.29:_ZN7Iex_3_015EconnrefusedExcC2Ev
libIex-3_0.so.29:_ZN7Iex_3_015EconnrefusedExcD0Ev
libIex-3_0.so.29:_ZN7Iex_3_015EconnrefusedExcD1Ev
libIex-3_0.so.29:_ZN7Iex_3_015EconnrefusedExcD2Ev
libIex-3_0.so.29:_ZN7Iex_3_015EconnrefusedExcaSEOS0_
libIex-3_0.so.29:_ZN7Iex_3_015EconnrefusedExcaSERS0_
libIex-3_0.so.29:_ZN7Iex_3_015EdestaddrreqExcC1EONSt7__cxx1112basic_stringIcSt11char_traitsIcESaIcEEE
libIex-3_0.so.29:_ZN7Iex_3_015EdestaddrreqExcC1EOS0_
libIex-3_0.so.29:_ZN7Iex_3_015EdestaddrreqExcC1EPKc
libIex-3_0.so.29:_ZN7Iex_3_015EdestaddrreqExcC1ERKNSt7__cxx1112basic_stringIcSt11char_traitsIcESaIcEEE
libIex-3_0.so.29:_ZN7Iex_3_015EdestaddrreqExcC1ERKS0_
libIex-3_0.so.29:_ZN7Iex_3_015EdestaddrreqExcC1ERNSt7__cxx1118basic_stringstreamIcSt11char_traitsIcESaIcEEE
libIex-3_0.so.29:_ZN7Iex_3_015EdestaddrreqExcC1Ev
libIex-3_0.so.29:_ZN7Iex_3_015EdestaddrreqExcC2EONSt7__cxx1112basic_stringIcSt11char_traitsIcESaIcEEE
libIex-3_0.so.29:_ZN7Iex_3_015EdestaddrreqExcC2EOS0_
libIex-3_0.so.29:_ZN7Iex_3_015EdestaddrreqExcC2EPKc
libIex-3_0.so.29:_ZN7Iex_3_015EdestaddrreqExcC2ERKNSt7__cxx1112basic_stringIcSt11char_traitsIcESaIcEEE
libIex-3_0.so.29:_ZN7Iex_3_015EdestaddrreqExcC2ERKS0_
libIex-3_0.so.29:_ZN7Iex_3_015EdestaddrreqExcC2ERNSt7__cxx1118basic_stringstreamIcSt11char_traitsIcESaIcEEE
libIex-3_0.so.29:_ZN7Iex_3_015EdestaddrreqExcC2Ev
libIex-3_0.so.29:_ZN7Iex_3_015EdestaddrreqExcD0Ev
libIex-3_0.so.29:_ZN7Iex_3_015EdestaddrreqExcD1Ev
libIex-3_0.so.29:_ZN7Iex_3_015EdestaddrreqExcD2Ev
libIex-3_0.so.29:_ZN7Iex_3_015EdestaddrreqExcaSEOS0_
libIex-3_0.so.29:_ZN7Iex_3_015EdestaddrreqExcaSERS0_
libIex-3_0.so.29:_ZN7Iex_3_015EhostunreachExcC1EONSt7__cxx1112basic_stringIcSt11char_traitsIcESaIcEEE
libIex-3_0.so.29:_ZN7Iex_3_015EhostunreachExcC1EOS0_
libIex-3_0.so.29:_ZN7Iex_3_015EhostunreachExcC1EPKc
libIex-3_0.so.29:_ZN7Iex_3_015EhostunreachExcC1ERKNSt7__cxx1112basic_stringIcSt11char_traitsIcESaIcEEE
libIex-3_0.so.29:_ZN7Iex_3_015EhostunreachExcC1ERKS0_
libIex-3_0.so.29:_ZN7Iex_3_015EhostunreachExcC1ERNSt7__cxx1118basic_stringstreamIcSt11char_traitsIcESaIcEEE
libIex-3_0.so.29:_ZN7Iex_3_015EhostunreachExcC1Ev
libIex-3_0.so.29:_ZN7Iex_3_015EhostunreachExcC2EONSt7__cxx1112basic_stringIcSt11char_traitsIcESaIcEEE
libIex-3_0.so.29:_ZN7Iex_3_015EhostunreachExcC2EOS0_
libIex-3_0.so.29:_ZN7Iex_3_015EhostunreachExcC2EPKc
libIex-3_0.so.29:_ZN7Iex_3_015EhostunreachExcC2ERKNSt7__cxx1112basic_stringIcSt11char_traitsIcESaIcEEE
libIex-3_0.so.29:_ZN7Iex_3_015EhostunreachExcC2ERKS0_
libIex-3_0.so.29:_ZN7Iex_3_015EhostunreachExcC2ERNSt7__cxx1118basic_stringstreamIcSt11char_traitsIcESaIcEEE
libIex-3_0.so.29:_ZN7Iex_3_015EhostunreachExcC2Ev
libIex-3_0.so.29:_ZN7Iex_3_015EhostunreachExcD0Ev
libIex-3_0.so.29:_ZN7Iex_3_015EhostunreachExcD1Ev
libIex-3_0.so.29:_ZN7Iex_3_015EhostunreachExcD2Ev
libIex-3_0.so.29:_ZN7Iex_3_015EhostunreachExcaSEOS0_
libIex-3_0.so.29:_ZN7Iex_3_015EhostunreachExcaSERS0_
libIex-3_0.so.29:_ZN7Iex_3_015EnametoolongExcC1EONSt7__cxx1112basic_stringIcSt11char_traitsIcESaIcEEE
libIex-3_0.so.29:_ZN7Iex_3_015EnametoolongExcC1EOS0_
libIex-3_0.so.29:_ZN7Iex_3_015EnametoolongExcC1EPKc
libIex-3_0.so.29:_ZN7Iex_3_015EnametoolongExcC1ERKNSt7__cxx1112basic_stringIcSt11char_traitsIcESaIcEEE
libIex-3_0.so.29:_ZN7Iex_3_015EnametoolongExcC1ERKS0_
libIex-3_0.so.29:_ZN7Iex_3_015EnametoolongExcC1ERNSt7__cxx1118basic_stringstreamIcSt11char_traitsIcESaIcEEE
libIex-3_0.so.29:_ZN7Iex_3_015EnametoolongExcC1Ev
libIex-3_0.so.29:_ZN7Iex_3_015EnametoolongExcC2EONSt7__cxx1112basic_stringIcSt11char_traitsIcESaIcEEE
libIex-3_0.so.29:_ZN7Iex_3_015EnametoolongExcC2EOS0_
libIex-3_0.so.29:_ZN7Iex_3_015EnametoolongExcC2EPKc
libIex-3_0.so.29:_ZN7Iex_3_015EnametoolongExcC2ERKNSt7__cxx1112basic_stringIcSt11char_traitsIcESaIcEEE
libIex-3_0.so.29:_ZN7Iex_3_015EnametoolongExcC2ERKS0_
libIex-3_0.so.29:_ZN7Iex_3_015EnametoolongExcC2ERNSt7__cxx1118basic_stringstreamIcSt11char_traitsIcESaIcEEE
libIex-3_0.so.29:_ZN7Iex_3_015EnametoolongExcC2Ev
libIex-3_0.so.29:_ZN7Iex_3_015EnametoolongExcD0Ev
libIex-3_0.so.29:_ZN7Iex_3_015EnametoolongExcD1Ev
libIex-3_0.so.29:_ZN7Iex_3_015EnametoolongExcD2Ev
libIex-3_0.so.29:_ZN7Iex_3_015EnametoolongExcaSEOS0_
libIex-3_0.so.29:_ZN7Iex_3_015EnametoolongExcaSERS0_
libIex-3_0.so.29:_ZN7Iex_3_015EnointrgroupExcC1EONSt7__cxx1112basic_stringIcSt11char_traitsIcESaIcEEE
libIex-3_0.so.29:_ZN7Iex_3_015EnointrgroupExcC1EOS0_
libIex-3_0.so.29:_ZN7Iex_3_015EnointrgroupExcC1EPKc
libIex-3_0.so.29:_ZN7Iex_3_015EnointrgroupExcC1ERKNSt7__cxx1112basic_stringIcSt11char_traitsIcESaIcEEE
libIex-3_0.so.29:_ZN7Iex_3_015EnointrgroupExcC1ERKS0_
libIex-3_0.so.29:_ZN7Iex_3_015EnointrgroupExcC1ERNSt7__cxx1118basic_stringstreamIcSt11char_traitsIcESaIcEEE
libIex-3_0.so.29:_ZN7Iex_3_015EnointrgroupExcC1Ev
libIex-3_0.so.29:_ZN7Iex_3_015EnointrgroupExcC2EONSt7__cxx1112basic_stringIcSt11char_traitsIcESaIcEEE
libIex-3_0.so.29:_ZN7Iex_3_015EnointrgroupExcC2EOS0_
libIex-3_0.so.29:_ZN7Iex_3_015EnointrgroupExcC2EPKc
libIex-3_0.so.29:_ZN7Iex_3_015EnointrgroupExcC2ERKNSt7__cxx1112basic_stringIcSt11char_traitsIcESaIcEEE
libIex-3_0.so.29:_ZN7Iex_3_015EnointrgroupExcC2ERKS0_
libIex-3_0.so.29:_ZN7Iex_3_015EnointrgroupExcC2ERNSt7__cxx1118basic_stringstreamIcSt11char_traitsIcESaIcEEE
libIex-3_0.so.29:_ZN7Iex_3_015EnointrgroupExcC2Ev
libIex-3_0.so.29:_ZN7Iex_3_015EnointrgroupExcD0Ev
libIex-3_0.so.29:_ZN7Iex_3_015EnointrgroupExcD1Ev
libIex-3_0.so.29:_ZN7Iex_3_015EnointrgroupExcD2Ev
libIex-3_0.so.29:_ZN7Iex_3_015EnointrgroupExcaSEOS0_
libIex-3_0.so.29:_ZN7Iex_3_015EnointrgroupExcaSERS0_
libIex-3_0.so.29:_ZN7Iex_3_015EnotenqueuedExcC1EONSt7__cxx1112basic_stringIcSt11char_traitsIcESaIcEEE
libIex-3_0.so.29:_ZN7Iex_3_015EnotenqueuedExcC1EOS0_
libIex-3_0.so.29:_ZN7Iex_3_015EnotenqueuedExcC1EPKc
libIex-3_0.so.29:_ZN7Iex_3_015EnotenqueuedExcC1ERKNSt7__cxx1112basic_stringIcSt11char_traitsIcESaIcEEE
libIex-3_0.so.29:_ZN7Iex_3_015EnotenqueuedExcC1ERKS0_
libIex-3_0.so.29:_ZN7Iex_3_015EnotenqueuedExcC1ERNSt7__cxx1118basic_stringstreamIcSt11char_traitsIcESaIcEEE
libIex-3_0.so.29:_ZN7Iex_3_015EnotenqueuedExcC1Ev
libIex-3_0.so.29:_ZN7Iex_3_015EnotenqueuedExcC2EONSt7__cxx1112basic_stringIcSt11char_traitsIcESaIcEEE
libIex-3_0.so.29:_ZN7Iex_3_015EnotenqueuedExcC2EOS0_
libIex-3_0.so.29:_ZN7Iex_3_015EnotenqueuedExcC2EPKc
libIex-3_0.so.29:_ZN7Iex_3_015EnotenqueuedExcC2ERKNSt7__cxx1112basic_stringIcSt11char_traitsIcESaIcEEE
libIex-3_0.so.29:_ZN7Iex_3_015EnotenqueuedExcC2ERKS0_
libIex-3_0.so.29:_ZN7Iex_3_015EnotenqueuedExcC2ERNSt7__cxx1118basic_stringstreamIcSt11char_traitsIcESaIcEEE
libIex-3_0.so.29:_ZN7Iex_3_015EnotenqueuedExcC2Ev
libIex-3_0.so.29:_ZN7Iex_3_015EnotenqueuedExcD0Ev
libIex-3_0.so.29:_ZN7Iex_3_015EnotenqueuedExcD1Ev
libIex-3_0.so.29:_ZN7Iex_3_015EnotenqueuedExcD2Ev
libIex-3_0.so.29:_ZN7Iex_3_015EnotenqueuedExcaSEOS0_
libIex-3_0.so.29:_ZN7Iex_3_015EnotenqueuedExcaSERS0_
libIex-3_0.so.29:_ZN7Iex_3_015EpfnosupportExcC1EONSt7__cxx1112basic_stringIcSt11char_traitsIcESaIcEEE
libIex-3_0.so.29:_ZN7Iex_3_015EpfnosupportExcC1EOS0_
libIex-3_0.so.29:_ZN7Iex_3_015EpfnosupportExcC1EPKc
libIex-3_0.so.29:_ZN7Iex_3_015EpfnosupportExcC1ERKNSt7__cxx1112basic_stringIcSt11char_traitsIcESaIcEEE
libIex-3_0.so.29:_ZN7Iex_3_015EpfnosupportExcC1ERKS0_
libIex-3_0.so.29:_ZN7Iex_3_015EpfnosupportExcC1ERNSt7__cxx1118basic_stringstreamIcSt11char_traitsIcESaIcEEE
libIex-3_0.so.29:_ZN7Iex_3_015EpfnosupportExcC1Ev
libIex-3_0.so.29:_ZN7Iex_3_015EpfnosupportExcC2EONSt7__cxx1112basic_stringIcSt11char_traitsIcESaIcEEE
libIex-3_0.so.29:_ZN7Iex_3_015EpfnosupportExcC2EOS0_
libIex-3_0.so.29:_ZN7Iex_3_015EpfnosupportExcC2EPKc
libIex-3_0.so.29:_ZN7Iex_3_015EpfnosupportExcC2ERKNSt7__cxx1112basic_stringIcSt11char_traitsIcESaIcEEE
libIex-3_0.so.29:_ZN7Iex_3_015EpfnosupportExcC2ERKS0_
libIex-3_0.so.29:_ZN7Iex_3_015EpfnosupportExcC2ERNSt7__cxx1118basic_stringstreamIcSt11char_traitsIcESaIcEEE
libIex-3_0.so.29:_ZN7Iex_3_015EpfnosupportExcC2Ev
libIex-3_0.so.29:_ZN7Iex_3_015EpfnosupportExcD0Ev
libIex-3_0.so.29:_ZN7Iex_3_015EpfnosupportExcD1Ev
libIex-3_0.so.29:_ZN7Iex_3_015EpfnosupportExcD2Ev
libIex-3_0.so.29:_ZN7Iex_3_015EpfnosupportExcaSEOS0_
libIex-3_0.so.29:_ZN7Iex_3_015EpfnosupportExcaSERS0_
libIex-3_0.so.29:_ZN7Iex_3_015EtoomanyrefsExcC1EONSt7__cxx1112basic_stringIcSt11char_traitsIcESaIcEEE
libIex-3_0.so.29:_ZN7Iex_3_015EtoomanyrefsExcC1EOS0_
libIex-3_0.so.29:_ZN7Iex_3_015EtoomanyrefsExcC1EPKc
libIex-3_0.so.29:_ZN7Iex_3_015EtoomanyrefsExcC1ERKNSt7__cxx1112basic_stringIcSt11char_traitsIcESaIcEEE
libIex-3_0.so.29:_ZN7Iex_3_015EtoomanyrefsExcC1ERKS0_
libIex-3_0.so.29:_ZN7Iex_3_015EtoomanyrefsExcC1ERNSt7__cxx1118basic_stringstreamIcSt11char_traitsIcESaIcEEE
libIex-3_0.so.29:_ZN7Iex_3_015EtoomanyrefsExcC1Ev
libIex-3_0.so.29:_ZN7Iex_3_015EtoomanyrefsExcC2EONSt7__cxx1112basic_stringIcSt11char_traitsIcESaIcEEE
libIex-3_0.so.29:_ZN7Iex_3_015EtoomanyrefsExcC2EOS0_
libIex-3_0.so.29:_ZN7Iex_3_015EtoomanyrefsExcC2EPKc
libIex-3_0.so.29:_ZN7Iex_3_015EtoomanyrefsExcC2ERKNSt7__cxx1112basic_stringIcSt11char_traitsIcESaIcEEE
libIex-3_0.so.29:_ZN7Iex_3_015EtoomanyrefsExcC2ERKS0_
libIex-3_0.so.29:_ZN7Iex_3_015EtoomanyrefsExcC2ERNSt7__cxx1118basic_stringstreamIcSt11char_traitsIcESaIcEEE
libIex-3_0.so.29:_ZN7Iex_3_015EtoomanyrefsExcC2Ev
libIex-3_0.so.29:_ZN7Iex_3_015EtoomanyrefsExcD0Ev
libIex-3_0.so.29:_ZN7Iex_3_015EtoomanyrefsExcD1Ev
libIex-3_0.so.29:_ZN7Iex_3_015EtoomanyrefsExcD2Ev
libIex-3_0.so.29:_ZN7Iex_3_015EtoomanyrefsExcaSEOS0_
libIex-3_0.so.29:_ZN7Iex_3_015EtoomanyrefsExcaSERS0_
libIex-3_0.so.29:_ZN7Iex_3_016EaddrnotavailExcC1EONSt7__cxx1112basic_stringIcSt11char_traitsIcESaIcEEE
libIex-3_0.so.29:_ZN7Iex_3_016EaddrnotavailExcC1EOS0_
libIex-3_0.so.29:_ZN7Iex_3_016EaddrnotavailExcC1EPKc
libIex-3_0.so.29:_ZN7Iex_3_016EaddrnotavailExcC1ERKNSt7__cxx1112basic_stringIcSt11char_traitsIcESaIcEEE
libIex-3_0.so.29:_ZN7Iex_3_016EaddrnotavailExcC1ERKS0_
libIex-3_0.so.29:_ZN7Iex_3_016EaddrnotavailExcC1ERNSt7__cxx1118basic_stringstreamIcSt11char_traitsIcESaIcEEE
libIex-3_0.so.29:_ZN7Iex_3_016EaddrnotavailExcC1Ev
libIex-3_0.so.29:_ZN7Iex_3_016EaddrnotavailExcC2EONSt7__cxx1112basic_stringIcSt11char_traitsIcESaIcEEE
libIex-3_0.so.29:_ZN7Iex_3_016EaddrnotavailExcC2EOS0_
libIex-3_0.so.29:_ZN7Iex_3_016EaddrnotavailExcC2EPKc
libIex-3_0.so.29:_ZN7Iex_3_016EaddrnotavailExcC2ERKNSt7__cxx1112basic_stringIcSt11char_traitsIcESaIcEEE
libIex-3_0.so.29:_ZN7Iex_3_016EaddrnotavailExcC2ERKS0_
libIex-3_0.so.29:_ZN7Iex_3_016EaddrnotavailExcC2ERNSt7__cxx1118basic_stringstreamIcSt11char_traitsIcESaIcEEE
libIex-3_0.so.29:_ZN7Iex_3_016EaddrnotavailExcC2Ev
libIex-3_0.so.29:_ZN7Iex_3_016EaddrnotavailExcD0Ev
libIex-3_0.so.29:_ZN7Iex_3_016EaddrnotavailExcD1Ev
libIex-3_0.so.29:_ZN7Iex_3_016EaddrnotavailExcD2Ev
libIex-3_0.so.29:_ZN7Iex_3_016EaddrnotavailExcaSEOS0_
libIex-3_0.so.29:_ZN7Iex_3_016EaddrnotavailExcaSERS0_
libIex-3_0.so.29:_ZN7Iex_3_016EdircorruptedExcC1EONSt7__cxx1112basic_stringIcSt11char_traitsIcESaIcEEE
libIex-3_0.so.29:_ZN7Iex_3_016EdircorruptedExcC1EOS0_
libIex-3_0.so.29:_ZN7Iex_3_016EdircorruptedExcC1EPKc
libIex-3_0.so.29:_ZN7Iex_3_016EdircorruptedExcC1ERKNSt7__cxx1112basic_stringIcSt11char_traitsIcESaIcEEE
libIex-3_0.so.29:_ZN7Iex_3_016EdircorruptedExcC1ERKS0_
libIex-3_0.so.29:_ZN7Iex_3_016EdircorruptedExcC1ERNSt7__cxx1118basic_stringstreamIcSt11char_traitsIcESaIcEEE
libIex-3_0.so.29:_ZN7Iex_3_016EdircorruptedExcC1Ev
libIex-3_0.so.29:_ZN7Iex_3_016EdircorruptedExcC2EONSt7__cxx1112basic_stringIcSt11char_traitsIcESaIcEEE
libIex-3_0.so.29:_ZN7Iex_3_016EdircorruptedExcC2EOS0_
libIex-3_0.so.29:_ZN7Iex_3_016EdircorruptedExcC2EPKc
libIex-3_0.so.29:_ZN7Iex_3_016EdircorruptedExcC2ERKNSt7__cxx1112basic_stringIcSt11char_traitsIcESaIcEEE
libIex-3_0.so.29:_ZN7Iex_3_016EdircorruptedExcC2ERKS0_
libIex-3_0.so.29:_ZN7Iex_3_016EdircorruptedExcC2ERNSt7__cxx1118basic_stringstreamIcSt11char_traitsIcESaIcEEE
libIex-3_0.so.29:_ZN7Iex_3_016EdircorruptedExcC2Ev
libIex-3_0.so.29:_ZN7Iex_3_016EdircorruptedExcD0Ev
libIex-3_0.so.29:_ZN7Iex_3_016EdircorruptedExcD1Ev
libIex-3_0.so.29:_ZN7Iex_3_016EdircorruptedExcD2Ev
libIex-3_0.so.29:_ZN7Iex_3_016EdircorruptedExcaSEOS0_
libIex-3_0.so.29:_ZN7Iex_3_016EdircorruptedExcaSERS0_
libIex-3_0.so.29:_ZN7Iex_3_017EnotcontrollerExcC1EONSt7__cxx1112basic_stringIcSt11char_traitsIcESaIcEEE
libIex-3_0.so.29:_ZN7Iex_3_017EnotcontrollerExcC1EOS0_
libIex-3_0.so.29:_ZN7Iex_3_017EnotcontrollerExcC1EPKc
libIex-3_0.so.29:_ZN7Iex_3_017EnotcontrollerExcC1ERKNSt7__cxx1112basic_stringIcSt11char_traitsIcESaIcEEE
libIex-3_0.so.29:_ZN7Iex_3_017EnotcontrollerExcC1ERKS0_
libIex-3_0.so.29:_ZN7Iex_3_017EnotcontrollerExcC1ERNSt7__cxx1118basic_stringstreamIcSt11char_traitsIcESaIcEEE
libIex-3_0.so.29:_ZN7Iex_3_017EnotcontrollerExcC1Ev
libIex-3_0.so.29:_ZN7Iex_3_017EnotcontrollerExcC2EONSt7__cxx1112basic_stringIcSt11char_traitsIcESaIcEEE
libIex-3_0.so.29:_ZN7Iex_3_017EnotcontrollerExcC2EOS0_
libIex-3_0.so.29:_ZN7Iex_3_017EnotcontrollerExcC2EPKc
libIex-3_0.so.29:_ZN7Iex_3_017EnotcontrollerExcC2ERKNSt7__cxx1112basic_stringIcSt11char_traitsIcESaIcEEE
libIex-3_0.so.29:_ZN7Iex_3_017EnotcontrollerExcC2ERKS0_
libIex-3_0.so.29:_ZN7Iex_3_017EnotcontrollerExcC2ERNSt7__cxx1118basic_stringstreamIcSt11char_traitsIcESaIcEEE
libIex-3_0.so.29:_ZN7Iex_3_017EnotcontrollerExcC2Ev
libIex-3_0.so.29:_ZN7Iex_3_017EnotcontrollerExcD0Ev
libIex-3_0.so.29:_ZN7Iex_3_017EnotcontrollerExcD1Ev
libIex-3_0.so.29:_ZN7Iex_3_017EnotcontrollerExcD2Ev
libIex-3_0.so.29:_ZN7Iex_3_017EnotcontrollerExcaSEOS0_
libIex-3_0.so.29:_ZN7Iex_3_017EnotcontrollerExcaSERS0_
libIex-3_0.so.29:_ZN7Iex_3_018EprotonosupportExcC1EONSt7__cxx1112basic_stringIcSt11char_traitsIcESaIcEEE
libIex-3_0.so.29:_ZN7Iex_3_018EprotonosupportExcC1EOS0_
libIex-3_0.so.29:_ZN7Iex_3_018EprotonosupportExcC1EPKc
libIex-3_0.so.29:_ZN7Iex_3_018EprotonosupportExcC1ERKNSt7__cxx1112basic_stringIcSt11char_traitsIcESaIcEEE
libIex-3_0.so.29:_ZN7Iex_3_018EprotonosupportExcC1ERKS0_
libIex-3_0.so.29:_ZN7Iex_3_018EprotonosupportExcC1ERNSt7__cxx1118basic_stringstreamIcSt11char_traitsIcESaIcEEE
libIex-3_0.so.29:_ZN7Iex_3_018EprotonosupportExcC1Ev
libIex-3_0.so.29:_ZN7Iex_3_018EprotonosupportExcC2EONSt7__cxx1112basic_stringIcSt11char_traitsIcESaIcEEE
libIex-3_0.so.29:_ZN7Iex_3_018EprotonosupportExcC2EOS0_
libIex-3_0.so.29:_ZN7Iex_3_018EprotonosupportExcC2EPKc
libIex-3_0.so.29:_ZN7Iex_3_018EprotonosupportExcC2ERKNSt7__cxx1112basic_stringIcSt11char_traitsIcESaIcEEE
libIex-3_0.so.29:_ZN7Iex_3_018EprotonosupportExcC2ERKS0_
libIex-3_0.so.29:_ZN7Iex_3_018EprotonosupportExcC2ERNSt7__cxx1118basic_stringstreamIcSt11char_traitsIcESaIcEEE
libIex-3_0.so.29:_ZN7Iex_3_018EprotonosupportExcC2Ev
libIex-3_0.so.29:_ZN7Iex_3_018EprotonosupportExcD0Ev
libIex-3_0.so.29:_ZN7Iex_3_018EprotonosupportExcD1Ev
libIex-3_0.so.29:_ZN7Iex_3_018EprotonosupportExcD2Ev
libIex-3_0.so.29:_ZN7Iex_3_018EprotonosupportExcaSEOS0_
libIex-3_0.so.29:_ZN7Iex_3_018EprotonosupportExcaSERS0_
libIex-3_0.so.29:_ZN7Iex_3_018EsocktnosupportExcC1EONSt7__cxx1112basic_stringIcSt11char_traitsIcESaIcEEE
libIex-3_0.so.29:_ZN7Iex_3_018EsocktnosupportExcC1EOS0_
libIex-3_0.so.29:_ZN7Iex_3_018EsocktnosupportExcC1EPKc
libIex-3_0.so.29:_ZN7Iex_3_018EsocktnosupportExcC1ERKNSt7__cxx1112basic_stringIcSt11char_traitsIcESaIcEEE
libIex-3_0.so.29:_ZN7Iex_3_018EsocktnosupportExcC1ERKS0_
libIex-3_0.so.29:_ZN7Iex_3_018EsocktnosupportExcC1ERNSt7__cxx1118basic_stringstreamIcSt11char_traitsIcESaIcEEE
libIex-3_0.so.29:_ZN7Iex_3_018EsocktnosupportExcC1Ev
libIex-3_0.so.29:_ZN7Iex_3_018EsocktnosupportExcC2EONSt7__cxx1112basic_stringIcSt11char_traitsIcESaIcEEE
libIex-3_0.so.29:_ZN7Iex_3_018EsocktnosupportExcC2EOS0_
libIex-3_0.so.29:_ZN7Iex_3_018EsocktnosupportExcC2EPKc
libIex-3_0.so.29:_ZN7Iex_3_018EsocktnosupportExcC2ERKNSt7__cxx1112basic_stringIcSt11char_traitsIcESaIcEEE
libIex-3_0.so.29:_ZN7Iex_3_018EsocktnosupportExcC2ERKS0_
libIex-3_0.so.29:_ZN7Iex_3_018EsocktnosupportExcC2ERNSt7__cxx1118basic_stringstreamIcSt11char_traitsIcESaIcEEE
libIex-3_0.so.29:_ZN7Iex_3_018EsocktnosupportExcC2Ev
libIex-3_0.so.29:_ZN7Iex_3_018EsocktnosupportExcD0Ev
libIex-3_0.so.29:_ZN7Iex_3_018EsocktnosupportExcD1Ev
libIex-3_0.so.29:_ZN7Iex_3_018EsocktnosupportExcD2Ev
libIex-3_0.so.29:_ZN7Iex_3_018EsocktnosupportExcaSEOS0_
libIex-3_0.so.29:_ZN7Iex_3_018EsocktnosupportExcaSERS0_
libIex-3_0.so.29:_ZN7Iex_3_05IoExcC1EONSt7__cxx1112basic_stringIcSt11char_traitsIcESaIcEEE
libIex-3_0.so.29:_ZN7Iex_3_05IoExcC1EOS0_
libIex-3_0.so.29:_ZN7Iex_3_05IoExcC1EPKc
libIex-3_0.so.29:_ZN7Iex_3_05IoExcC1ERKNSt7__cxx1112basic_stringIcSt11char_traitsIcESaIcEEE
libIex-3_0.so.29:_ZN7Iex_3_05IoExcC1ERKS0_
libIex-3_0.so.29:_ZN7Iex_3_05IoExcC1ERNSt7__cxx1118basic_stringstreamIcSt11char_traitsIcESaIcEEE
libIex-3_0.so.29:_ZN7Iex_3_05IoExcC1Ev
libIex-3_0.so.29:_ZN7Iex_3_05IoExcC2EONSt7__cxx1112basic_stringIcSt11char_traitsIcESaIcEEE
libIex-3_0.so.29:_ZN7Iex_3_05IoExcC2EOS0_
libIex-3_0.so.29:_ZN7Iex_3_05IoExcC2EPKc
libIex-3_0.so.29:_ZN7Iex_3_05IoExcC2ERKNSt7__cxx1112basic_stringIcSt11char_traitsIcESaIcEEE
libIex-3_0.so.29:_ZN7Iex_3_05IoExcC2ERKS0_
libIex-3_0.so.29:_ZN7Iex_3_05IoExcC2ERNSt7__cxx1118basic_stringstreamIcSt11char_traitsIcESaIcEEE
libIex-3_0.so.29:_ZN7Iex_3_05IoExcC2Ev
libIex-3_0.so.29:_ZN7Iex_3_05IoExcD0Ev
libIex-3_0.so.29:_ZN7Iex_3_05IoExcD1Ev
libIex-3_0.so.29:_ZN7Iex_3_05IoExcD2Ev
libIex-3_0.so.29:_ZN7Iex_3_05IoExcaSEOS0_
libIex-3_0.so.29:_ZN7Iex_3_05IoExcaSERS0_
libIex-3_0.so.29:_ZN7Iex_3_06ArgExcC1EONSt7__cxx1112basic_stringIcSt11char_traitsIcESaIcEEE
libIex-3_0.so.29:_ZN7Iex_3_06ArgExcC1EOS0_
libIex-3_0.so.29:_ZN7Iex_3_06ArgExcC1EPKc
libIex-3_0.so.29:_ZN7Iex_3_06ArgExcC1ERKNSt7__cxx1112basic_stringIcSt11char_traitsIcESaIcEEE
libIex-3_0.so.29:_ZN7Iex_3_06ArgExcC1ERKS0_
libIex-3_0.so.29:_ZN7Iex_3_06ArgExcC1ERNSt7__cxx1118basic_stringstreamIcSt11char_traitsIcESaIcEEE
libIex-3_0.so.29:_ZN7Iex_3_06ArgExcC1Ev
libIex-3_0.so.29:_ZN7Iex_3_06ArgExcC2EONSt7__cxx1112basic_stringIcSt11char_traitsIcESaIcEEE
libIex-3_0.so.29:_ZN7Iex_3_06ArgExcC2EOS0_
libIex-3_0.so.29:_ZN7Iex_3_06ArgExcC2EPKc
libIex-3_0.so.29:_ZN7Iex_3_06ArgExcC2ERKNSt7__cxx1112basic_stringIcSt11char_traitsIcESaIcEEE
libIex-3_0.so.29:_ZN7Iex_3_06ArgExcC2ERKS0_
libIex-3_0.so.29:_ZN7Iex_3_06ArgExcC2ERNSt7__cxx1118basic_stringstreamIcSt11char_traitsIcESaIcEEE
libIex-3_0.so.29:_ZN7Iex_3_06ArgExcC2Ev
libIex-3_0.so.29:_ZN7Iex_3_06ArgExcD0Ev
libIex-3_0.so.29:_ZN7Iex_3_06ArgExcD1Ev
libIex-3_0.so.29:_ZN7Iex_3_06ArgExcD2Ev
libIex-3_0.so.29:_ZN7Iex_3_06ArgExcaSEOS0_
libIex-3_0.so.29:_ZN7Iex_3_06ArgExcaSERS0_
libIex-3_0.so.29:_ZN7Iex_3_06EioExcC1EONSt7__cxx1112basic_stringIcSt11char_traitsIcESaIcEEE
libIex-3_0.so.29:_ZN7Iex_3_06EioExcC1EOS0_
libIex-3_0.so.29:_ZN7Iex_3_06EioExcC1EPKc
libIex-3_0.so.29:_ZN7Iex_3_06EioExcC1ERKNSt7__cxx1112basic_stringIcSt11char_traitsIcESaIcEEE
libIex-3_0.so.29:_ZN7Iex_3_06EioExcC1ERKS0_
libIex-3_0.so.29:_ZN7Iex_3_06EioExcC1ERNSt7__cxx1118basic_stringstreamIcSt11char_traitsIcESaIcEEE
libIex-3_0.so.29:_ZN7Iex_3_06EioExcC1Ev
libIex-3_0.so.29:_ZN7Iex_3_06EioExcC2EONSt7__cxx1112basic_stringIcSt11char_traitsIcESaIcEEE
libIex-3_0.so.29:_ZN7Iex_3_06EioExcC2EOS0_
libIex-3_0.so.29:_ZN7Iex_3_06EioExcC2EPKc
libIex-3_0.so.29:_ZN7Iex_3_06EioExcC2ERKNSt7__cxx1112basic_stringIcSt11char_traitsIcESaIcEEE
libIex-3_0.so.29:_ZN7Iex_3_06EioExcC2ERKS0_
libIex-3_0.so.29:_ZN7Iex_3_06EioExcC2ERNSt7__cxx1118basic_stringstreamIcSt11char_traitsIcESaIcEEE
libIex-3_0.so.29:_ZN7Iex_3_06EioExcC2Ev
libIex-3_0.so.29:_ZN7Iex_3_06EioExcD0Ev
libIex-3_0.so.29:_ZN7Iex_3_06EioExcD1Ev
libIex-3_0.so.29:_ZN7Iex_3_06EioExcD2Ev
libIex-3_0.so.29:_ZN7Iex_3_06EioExcaSEOS0_
libIex-3_0.so.29:_ZN7Iex_3_06EioExcaSERS0_
libIex-3_0.so.29:_ZN7Iex_3_07BaseExc6appendEPKc
libIex-3_0.so.29:_ZN7Iex_3_07BaseExc6appendERNSt7__cxx1118basic_stringstreamIcSt11char_traitsIcESaIcEEE
libIex-3_0.so.29:_ZN7Iex_3_07BaseExc6assignEPKc
libIex-3_0.so.29:_ZN7Iex_3_07BaseExc6assignERNSt7__cxx1118basic_stringstreamIcSt11char_traitsIcESaIcEEE
libIex-3_0.so.29:_ZN7Iex_3_07BaseExcC1EONSt7__cxx1112basic_stringIcSt11char_traitsIcESaIcEEE
libIex-3_0.so.29:_ZN7Iex_3_07BaseExcC1EPKc
libIex-3_0.so.29:_ZN7Iex_3_07BaseExcC1ERKNSt7__cxx1112basic_stringIcSt11char_traitsIcESaIcEEE
libIex-3_0.so.29:_ZN7Iex_3_07BaseExcC1ERKS0_
libIex-3_0.so.29:_ZN7Iex_3_07BaseExcC1ERNSt7__cxx1118basic_stringstreamIcSt11char_traitsIcESaIcEEE
libIex-3_0.so.29:_ZN7Iex_3_07BaseExcC2EONSt7__cxx1112basic_stringIcSt11char_traitsIcESaIcEEE
libIex-3_0.so.29:_ZN7Iex_3_07BaseExcC2EPKc
libIex-3_0.so.29:_ZN7Iex_3_07BaseExcC2ERKNSt7__cxx1112basic_stringIcSt11char_traitsIcESaIcEEE
libIex-3_0.so.29:_ZN7Iex_3_07BaseExcC2ERKS0_
libIex-3_0.so.29:_ZN7Iex_3_07BaseExcC2ERNSt7__cxx1118basic_stringstreamIcSt11char_traitsIcESaIcEEE
libIex-3_0.so.29:_ZN7Iex_3_07BaseExcD0Ev
libIex-3_0.so.29:_ZN7Iex_3_07BaseExcD1Ev
libIex-3_0.so.29:_ZN7Iex_3_07BaseExcD2Ev
libIex-3_0.so.29:_ZN7Iex_3_07BaseExcaSEOS0_
libIex-3_0.so.29:_ZN7Iex_3_07BaseExcaSEPKc
libIex-3_0.so.29:_ZN7Iex_3_07BaseExcaSERKS0_
libIex-3_0.so.29:_ZN7Iex_3_07BaseExcaSERNSt7__cxx1118basic_stringstreamIcSt11char_traitsIcESaIcEEE
libIex-3_0.so.29:_ZN7Iex_3_07BaseExcpLEPKc
libIex-3_0.so.29:_ZN7Iex_3_07BaseExcpLERNSt7__cxx1118basic_stringstreamIcSt11char_traitsIcESaIcEEE
libIex-3_0.so.29:_ZN7Iex_3_07EadvExcC1EONSt7__cxx1112basic_stringIcSt11char_traitsIcESaIcEEE
libIex-3_0.so.29:_ZN7Iex_3_07EadvExcC1EOS0_
libIex-3_0.so.29:_ZN7Iex_3_07EadvExcC1EPKc
libIex-3_0.so.29:_ZN7Iex_3_07EadvExcC1ERKNSt7__cxx1112basic_stringIcSt11char_traitsIcESaIcEEE
libIex-3_0.so.29:_ZN7Iex_3_07EadvExcC1ERKS0_
libIex-3_0.so.29:_ZN7Iex_3_07EadvExcC1ERNSt7__cxx1118basic_stringstreamIcSt11char_traitsIcESaIcEEE
libIex-3_0.so.29:_ZN7Iex_3_07EadvExcC1Ev
libIex-3_0.so.29:_ZN7Iex_3_07EadvExcC2EONSt7__cxx1112basic_stringIcSt11char_traitsIcESaIcEEE
libIex-3_0.so.29:_ZN7Iex_3_07EadvExcC2EOS0_
libIex-3_0.so.29:_ZN7Iex_3_07EadvExcC2EPKc
libIex-3_0.so.29:_ZN7Iex_3_07EadvExcC2ERKNSt7__cxx1112basic_stringIcSt11char_traitsIcESaIcEEE
libIex-3_0.so.29:_ZN7Iex_3_07EadvExcC2ERKS0_
libIex-3_0.so.29:_ZN7Iex_3_07EadvExcC2ERNSt7__cxx1118basic_stringstreamIcSt11char_traitsIcESaIcEEE
libIex-3_0.so.29:_ZN7Iex_3_07EadvExcC2Ev
libIex-3_0.so.29:_ZN7Iex_3_07EadvExcD0Ev
libIex-3_0.so.29:_ZN7Iex_3_07EadvExcD1Ev
libIex-3_0.so.29:_ZN7Iex_3_07EadvExcD2Ev
libIex-3_0.so.29:_ZN7Iex_3_07EadvExcaSEOS0_
libIex-3_0.so.29:_ZN7Iex_3_07EadvExcaSERS0_
libIex-3_0.so.29:_ZN7Iex_3_07EdomExcC1EONSt7__cxx1112basic_stringIcSt11char_traitsIcESaIcEEE
libIex-3_0.so.29:_ZN7Iex_3_07EdomExcC1EOS0_
libIex-3_0.so.29:_ZN7Iex_3_07EdomExcC1EPKc
libIex-3_0.so.29:_ZN7Iex_3_07EdomExcC1ERKNSt7__cxx1112basic_stringIcSt11char_traitsIcESaIcEEE
libIex-3_0.so.29:_ZN7Iex_3_07EdomExcC1ERKS0_
libIex-3_0.so.29:_ZN7Iex_3_07EdomExcC1ERNSt7__cxx1118basic_stringstreamIcSt11char_traitsIcESaIcEEE
libIex-3_0.so.29:_ZN7Iex_3_07EdomExcC1Ev
libIex-3_0.so.29:_ZN7Iex_3_07EdomExcC2EONSt7__cxx1112basic_stringIcSt11char_traitsIcESaIcEEE
libIex-3_0.so.29:_ZN7Iex_3_07EdomExcC2EOS0_
libIex-3_0.so.29:_ZN7Iex_3_07EdomExcC2EPKc
libIex-3_0.so.29:_ZN7Iex_3_07EdomExcC2ERKNSt7__cxx1112basic_stringIcSt11char_traitsIcESaIcEEE
libIex-3_0.so.29:_ZN7Iex_3_07EdomExcC2ERKS0_
libIex-3_0.so.29:_ZN7Iex_3_07EdomExcC2ERNSt7__cxx1118basic_stringstreamIcSt11char_traitsIcESaIcEEE
libIex-3_0.so.29:_ZN7Iex_3_07EdomExcC2Ev
libIex-3_0.so.29:_ZN7Iex_3_07EdomExcD0Ev
libIex-3_0.so.29:_ZN7Iex_3_07EdomExcD1Ev
libIex-3_0.so.29:_ZN7Iex_3_07EdomExcD2Ev
libIex-3_0.so.29:_ZN7Iex_3_07EdomExcaSEOS0_
libIex-3_0.so.29:_ZN7Iex_3_07EdomExcaSERS0_
libIex-3_0.so.29:_ZN7Iex_3_07MathExcC1EONSt7__cxx1112basic_stringIcSt11char_traitsIcESaIcEEE
libIex-3_0.so.29:_ZN7Iex_3_07MathExcC1EOS0_
libIex-3_0.so.29:_ZN7Iex_3_07MathExcC1EPKc
libIex-3_0.so.29:_ZN7Iex_3_07MathExcC1ERKNSt7__cxx1112basic_stringIcSt11char_traitsIcESaIcEEE
libIex-3_0.so.29:_ZN7Iex_3_07MathExcC1ERKS0_
libIex-3_0.so.29:_ZN7Iex_3_07MathExcC1ERNSt7__cxx1118basic_stringstreamIcSt11char_traitsIcESaIcEEE
libIex-3_0.so.29:_ZN7Iex_3_07MathExcC1Ev
libIex-3_0.so.29:_ZN7Iex_3_07MathExcC2EONSt7__cxx1112basic_stringIcSt11char_traitsIcESaIcEEE
libIex-3_0.so.29:_ZN7Iex_3_07MathExcC2EOS0_
libIex-3_0.so.29:_ZN7Iex_3_07MathExcC2EPKc
libIex-3_0.so.29:_ZN7Iex_3_07MathExcC2ERKNSt7__cxx1112basic_stringIcSt11char_traitsIcESaIcEEE
libIex-3_0.so.29:_ZN7Iex_3_07MathExcC2ERKS0_
libIex-3_0.so.29:_ZN7Iex_3_07MathExcC2ERNSt7__cxx1118basic_stringstreamIcSt11char_traitsIcESaIcEEE
libIex-3_0.so.29:_ZN7Iex_3_07MathExcC2Ev
libIex-3_0.so.29:_ZN7Iex_3_07MathExcD0Ev
libIex-3_0.so.29:_ZN7Iex_3_07MathExcD1Ev
libIex-3_0.so.29:_ZN7Iex_3_07MathExcD2Ev
libIex-3_0.so.29:_ZN7Iex_3_07MathExcaSEOS0_
libIex-3_0.so.29:_ZN7Iex_3_07MathExcaSERS0_
libIex-3_0.so.29:_ZN7Iex_3_07NullExcC1EONSt7__cxx1112basic_stringIcSt11char_traitsIcESaIcEEE
libIex-3_0.so.29:_ZN7Iex_3_07NullExcC1EOS0_
libIex-3_0.so.29:_ZN7Iex_3_07NullExcC1EPKc
libIex-3_0.so.29:_ZN7Iex_3_07NullExcC1ERKNSt7__cxx1112basic_stringIcSt11char_traitsIcESaIcEEE
libIex-3_0.so.29:_ZN7Iex_3_07NullExcC1ERKS0_
libIex-3_0.so.29:_ZN7Iex_3_07NullExcC1ERNSt7__cxx1118basic_stringstreamIcSt11char_traitsIcESaIcEEE
libIex-3_0.so.29:_ZN7Iex_3_07NullExcC1Ev
libIex-3_0.so.29:_ZN7Iex_3_07NullExcC2EONSt7__cxx1112basic_stringIcSt11char_traitsIcESaIcEEE
libIex-3_0.so.29:_ZN7Iex_3_07NullExcC2EOS0_
libIex-3_0.so.29:_ZN7Iex_3_07NullExcC2EPKc
libIex-3_0.so.29:_ZN7Iex_3_07NullExcC2ERKNSt7__cxx1112basic_stringIcSt11char_traitsIcESaIcEEE
libIex-3_0.so.29:_ZN7Iex_3_07NullExcC2ERKS0_
libIex-3_0.so.29:_ZN7Iex_3_07NullExcC2ERNSt7__cxx1118basic_stringstreamIcSt11char_traitsIcESaIcEEE
libIex-3_0.so.29:_ZN7Iex_3_07NullExcC2Ev
libIex-3_0.so.29:_ZN7Iex_3_07NullExcD0Ev
libIex-3_0.so.29:_ZN7Iex_3_07NullExcD1Ev
libIex-3_0.so.29:_ZN7Iex_3_07NullExcD2Ev
libIex-3_0.so.29:_ZN7Iex_3_07NullExcaSEOS0_
libIex-3_0.so.29:_ZN7Iex_3_07NullExcaSERS0_
libIex-3_0.so.29:_ZN7Iex_3_07TypeExcC1EONSt7__cxx1112basic_stringIcSt11char_traitsIcESaIcEEE
libIex-3_0.so.29:_ZN7Iex_3_07TypeExcC1EOS0_
libIex-3_0.so.29:_ZN7Iex_3_07TypeExcC1EPKc
libIex-3_0.so.29:_ZN7Iex_3_07TypeExcC1ERKNSt7__cxx1112basic_stringIcSt11char_traitsIcESaIcEEE
libIex-3_0.so.29:_ZN7Iex_3_07TypeExcC1ERKS0_
libIex-3_0.so.29:_ZN7Iex_3_07TypeExcC1ERNSt7__cxx1118basic_stringstreamIcSt11char_traitsIcESaIcEEE
libIex-3_0.so.29:_ZN7Iex_3_07TypeExcC1Ev
libIex-3_0.so.29:_ZN7Iex_3_07TypeExcC2EONSt7__cxx1112basic_stringIcSt11char_traitsIcESaIcEEE
libIex-3_0.so.29:_ZN7Iex_3_07TypeExcC2EOS0_
libIex-3_0.so.29:_ZN7Iex_3_07TypeExcC2EPKc
libIex-3_0.so.29:_ZN7Iex_3_07TypeExcC2ERKNSt7__cxx1112basic_stringIcSt11char_traitsIcESaIcEEE
libIex-3_0.so.29:_ZN7Iex_3_07TypeExcC2ERKS0_
libIex-3_0.so.29:_ZN7Iex_3_07TypeExcC2ERNSt7__cxx1118basic_stringstreamIcSt11char_traitsIcESaIcEEE
libIex-3_0.so.29:_ZN7Iex_3_07TypeExcC2Ev
libIex-3_0.so.29:_ZN7Iex_3_07TypeExcD0Ev
libIex-3_0.so.29:_ZN7Iex_3_07TypeExcD1Ev
libIex-3_0.so.29:_ZN7Iex_3_07TypeExcD2Ev
libIex-3_0.so.29:_ZN7Iex_3_07TypeExcaSEOS0_
libIex-3_0.so.29:_ZN7Iex_3_07TypeExcaSERS0_
libIex-3_0.so.29:_ZN7Iex_3_08E2bigExcC1EONSt7__cxx1112basic_stringIcSt11char_traitsIcESaIcEEE
libIex-3_0.so.29:_ZN7Iex_3_08E2bigExcC1EOS0_
libIex-3_0.so.29:_ZN7Iex_3_08E2bigExcC1EPKc
libIex-3_0.so.29:_ZN7Iex_3_08E2bigExcC1ERKNSt7__cxx1112basic_stringIcSt11char_traitsIcESaIcEEE
libIex-3_0.so.29:_ZN7Iex_3_08E2bigExcC1ERKS0_
libIex-3_0.so.29:_ZN7Iex_3_08E2bigExcC1ERNSt7__cxx1118basic_stringstreamIcSt11char_traitsIcESaIcEEE
libIex-3_0.so.29:_ZN7Iex_3_08E2bigExcC1Ev
libIex-3_0.so.29:_ZN7Iex_3_08E2bigExcC2EONSt7__cxx1112basic_stringIcSt11char_traitsIcESaIcEEE
libIex-3_0.so.29:_ZN7Iex_3_08E2bigExcC2EOS0_
libIex-3_0.so.29:_ZN7Iex_3_08E2bigExcC2EPKc
libIex-3_0.so.29:_ZN7Iex_3_08E2bigExcC2ERKNSt7__cxx1112basic_stringIcSt11char_traitsIcESaIcEEE
libIex-3_0.so.29:_ZN7Iex_3_08E2bigExcC2ERKS0_
libIex-3_0.so.29:_ZN7Iex_3_08E2bigExcC2ERNSt7__cxx1118basic_stringstreamIcSt11char_traitsIcESaIcEEE
libIex-3_0.so.29:_ZN7Iex_3_08E2bigExcC2Ev
libIex-3_0.so.29:_ZN7Iex_3_08E2bigExcD0Ev
libIex-3_0.so.29:_ZN7Iex_3_08E2bigExcD1Ev
libIex-3_0.so.29:_ZN7Iex_3_08E2bigExcD2Ev
libIex-3_0.so.29:_ZN7Iex_3_08E2bigExcaSEOS0_
libIex-3_0.so.29:_ZN7Iex_3_08E2bigExcaSERS0_
libIex-3_0.so.29:_ZN7Iex_3_08EbadeExcC1EONSt7__cxx1112basic_stringIcSt11char_traitsIcESaIcEEE
libIex-3_0.so.29:_ZN7Iex_3_08EbadeExcC1EOS0_
libIex-3_0.so.29:_ZN7Iex_3_08EbadeExcC1EPKc
libIex-3_0.so.29:_ZN7Iex_3_08EbadeExcC1ERKNSt7__cxx1112basic_stringIcSt11char_traitsIcESaIcEEE
libIex-3_0.so.29:_ZN7Iex_3_08EbadeExcC1ERKS0_
libIex-3_0.so.29:_ZN7Iex_3_08EbadeExcC1ERNSt7__cxx1118basic_stringstreamIcSt11char_traitsIcESaIcEEE
libIex-3_0.so.29:_ZN7Iex_3_08EbadeExcC1Ev
libIex-3_0.so.29:_ZN7Iex_3_08EbadeExcC2EONSt7__cxx1112basic_stringIcSt11char_traitsIcESaIcEEE
libIex-3_0.so.29:_ZN7Iex_3_08EbadeExcC2EOS0_
libIex-3_0.so.29:_ZN7Iex_3_08EbadeExcC2EPKc
libIex-3_0.so.29:_ZN7Iex_3_08EbadeExcC2ERKNSt7__cxx1112basic_stringIcSt11char_traitsIcESaIcEEE
libIex-3_0.so.29:_ZN7Iex_3_08EbadeExcC2ERKS0_
libIex-3_0.so.29:_ZN7Iex_3_08EbadeExcC2ERNSt7__cxx1118basic_stringstreamIcSt11char_traitsIcESaIcEEE
libIex-3_0.so.29:_ZN7Iex_3_08EbadeExcC2Ev
libIex-3_0.so.29:_ZN7Iex_3_08EbadeExcD0Ev
libIex-3_0.so.29:_ZN7Iex_3_08EbadeExcD1Ev
libIex-3_0.so.29:_ZN7Iex_3_08EbadeExcD2Ev
libIex-3_0.so.29:_ZN7Iex_3_08EbadeExcaSEOS0_
libIex-3_0.so.29:_ZN7Iex_3_08EbadeExcaSERS0_
libIex-3_0.so.29:_ZN7Iex_3_08EbadfExcC1EONSt7__cxx1112basic_stringIcSt11char_traitsIcESaIcEEE
libIex-3_0.so.29:_ZN7Iex_3_08EbadfExcC1EOS0_
libIex-3_0.so.29:_ZN7Iex_3_08EbadfExcC1EPKc
libIex-3_0.so.29:_ZN7Iex_3_08EbadfExcC1ERKNSt7__cxx1112basic_stringIcSt11char_traitsIcESaIcEEE
libIex-3_0.so.29:_ZN7Iex_3_08EbadfExcC1ERKS0_
libIex-3_0.so.29:_ZN7Iex_3_08EbadfExcC1ERNSt7__cxx1118basic_stringstreamIcSt11char_traitsIcESaIcEEE
libIex-3_0.so.29:_ZN7Iex_3_08EbadfExcC1Ev
libIex-3_0.so.29:_ZN7Iex_3_08EbadfExcC2EONSt7__cxx1112basic_stringIcSt11char_traitsIcESaIcEEE
libIex-3_0.so.29:_ZN7Iex_3_08EbadfExcC2EOS0_
libIex-3_0.so.29:_ZN7Iex_3_08EbadfExcC2EPKc
libIex-3_0.so.29:_ZN7Iex_3_08EbadfExcC2ERKNSt7__cxx1112basic_stringIcSt11char_traitsIcESaIcEEE
libIex-3_0.so.29:_ZN7Iex_3_08EbadfExcC2ERKS0_
libIex-3_0.so.29:_ZN7Iex_3_08EbadfExcC2ERNSt7__cxx1118basic_stringstreamIcSt11char_traitsIcESaIcEEE
libIex-3_0.so.29:_ZN7Iex_3_08EbadfExcC2Ev
libIex-3_0.so.29:_ZN7Iex_3_08EbadfExcD0Ev
libIex-3_0.so.29:_ZN7Iex_3_08EbadfExcD1Ev
libIex-3_0.so.29:_ZN7Iex_3_08EbadfExcD2Ev
libIex-3_0.so.29:_ZN7Iex_3_08EbadfExcaSEOS0_
libIex-3_0.so.29:_ZN7Iex_3_08EbadfExcaSERS0_
libIex-3_0.so.29:_ZN7Iex_3_08EbadrExcC1EONSt7__cxx1112basic_stringIcSt11char_traitsIcESaIcEEE
libIex-3_0.so.29:_ZN7Iex_3_08EbadrExcC1EOS0_
libIex-3_0.so.29:_ZN7Iex_3_08EbadrExcC1EPKc
libIex-3_0.so.29:_ZN7Iex_3_08EbadrExcC1ERKNSt7__cxx1112basic_stringIcSt11char_traitsIcESaIcEEE
libIex-3_0.so.29:_ZN7Iex_3_08EbadrExcC1ERKS0_
libIex-3_0.so.29:_ZN7Iex_3_08EbadrExcC1ERNSt7__cxx1118basic_stringstreamIcSt11char_traitsIcESaIcEEE
libIex-3_0.so.29:_ZN7Iex_3_08EbadrExcC1Ev
libIex-3_0.so.29:_ZN7Iex_3_08EbadrExcC2EONSt7__cxx1112basic_stringIcSt11char_traitsIcESaIcEEE
libIex-3_0.so.29:_ZN7Iex_3_08EbadrExcC2EOS0_
libIex-3_0.so.29:_ZN7Iex_3_08EbadrExcC2EPKc
libIex-3_0.so.29:_ZN7Iex_3_08EbadrExcC2ERKNSt7__cxx1112basic_stringIcSt11char_traitsIcESaIcEEE
libIex-3_0.so.29:_ZN7Iex_3_08EbadrExcC2ERKS0_
libIex-3_0.so.29:_ZN7Iex_3_08EbadrExcC2ERNSt7__cxx1118basic_stringstreamIcSt11char_traitsIcESaIcEEE
libIex-3_0.so.29:_ZN7Iex_3_08EbadrExcC2Ev
libIex-3_0.so.29:_ZN7Iex_3_08EbadrExcD0Ev
libIex-3_0.so.29:_ZN7Iex_3_08EbadrExcD1Ev
libIex-3_0.so.29:_ZN7Iex_3_08EbadrExcD2Ev
libIex-3_0.so.29:_ZN7Iex_3_08EbadrExcaSEOS0_
libIex-3_0.so.29:_ZN7Iex_3_08EbadrExcaSERS0_
libIex-3_0.so.29:_ZN7Iex_3_08EbusyExcC1EONSt7__cxx1112basic_stringIcSt11char_traitsIcESaIcEEE
libIex-3_0.so.29:_ZN7Iex_3_08EbusyExcC1EOS0_
libIex-3_0.so.29:_ZN7Iex_3_08EbusyExcC1EPKc
libIex-3_0.so.29:_ZN7Iex_3_08EbusyExcC1ERKNSt7__cxx1112basic_stringIcSt11char_traitsIcESaIcEEE
libIex-3_0.so.29:_ZN7Iex_3_08EbusyExcC1ERKS0_
libIex-3_0.so.29:_ZN7Iex_3_08EbusyExcC1ERNSt7__cxx1118basic_stringstreamIcSt11char_traitsIcESaIcEEE
libIex-3_0.so.29:_ZN7Iex_3_08EbusyExcC1Ev
libIex-3_0.so.29:_ZN7Iex_3_08EbusyExcC2EONSt7__cxx1112basic_stringIcSt11char_traitsIcESaIcEEE
libIex-3_0.so.29:_ZN7Iex_3_08EbusyExcC2EOS0_
libIex-3_0.so.29:_ZN7Iex_3_08EbusyExcC2EPKc
libIex-3_0.so.29:_ZN7Iex_3_08EbusyExcC2ERKNSt7__cxx1112basic_stringIcSt11char_traitsIcESaIcEEE
libIex-3_0.so.29:_ZN7Iex_3_08EbusyExcC2ERKS0_
libIex-3_0.so.29:_ZN7Iex_3_08EbusyExcC2ERNSt7__cxx1118basic_stringstreamIcSt11char_traitsIcESaIcEEE
libIex-3_0.so.29:_ZN7Iex_3_08EbusyExcC2Ev
libIex-3_0.so.29:_ZN7Iex_3_08EbusyExcD0Ev
libIex-3_0.so.29:_ZN7Iex_3_08EbusyExcD1Ev
libIex-3_0.so.29:_ZN7Iex_3_08EbusyExcD2Ev
libIex-3_0.so.29:_ZN7Iex_3_08EbusyExcaSEOS0_
libIex-3_0.so.29:_ZN7Iex_3_08EbusyExcaSERS0_
libIex-3_0.so.29:_ZN7Iex_3_08EcommExcC1EONSt7__cxx1112basic_stringIcSt11char_traitsIcESaIcEEE
libIex-3_0.so.29:_ZN7Iex_3_08EcommExcC1EOS0_
libIex-3_0.so.29:_ZN7Iex_3_08EcommExcC1EPKc
libIex-3_0.so.29:_ZN7Iex_3_08EcommExcC1ERKNSt7__cxx1112basic_stringIcSt11char_traitsIcESaIcEEE
libIex-3_0.so.29:_ZN7Iex_3_08EcommExcC1ERKS0_
libIex-3_0.so.29:_ZN7Iex_3_08EcommExcC1ERNSt7__cxx1118basic_stringstreamIcSt11char_traitsIcESaIcEEE
libIex-3_0.so.29:_ZN7Iex_3_08EcommExcC1Ev
libIex-3_0.so.29:_ZN7Iex_3_08EcommExcC2EONSt7__cxx1112basic_stringIcSt11char_traitsIcESaIcEEE
libIex-3_0.so.29:_ZN7Iex_3_08EcommExcC2EOS0_
libIex-3_0.so.29:_ZN7Iex_3_08EcommExcC2EPKc
libIex-3_0.so.29:_ZN7Iex_3_08EcommExcC2ERKNSt7__cxx1112basic_stringIcSt11char_traitsIcESaIcEEE
libIex-3_0.so.29:_ZN7Iex_3_08EcommExcC2ERKS0_
libIex-3_0.so.29:_ZN7Iex_3_08EcommExcC2ERNSt7__cxx1118basic_stringstreamIcSt11char_traitsIcESaIcEEE
libIex-3_0.so.29:_ZN7Iex_3_08EcommExcC2Ev
libIex-3_0.so.29:_ZN7Iex_3_08EcommExcD0Ev
libIex-3_0.so.29:_ZN7Iex_3_08EcommExcD1Ev
libIex-3_0.so.29:_ZN7Iex_3_08EcommExcD2Ev
libIex-3_0.so.29:_ZN7Iex_3_08EcommExcaSEOS0_
libIex-3_0.so.29:_ZN7Iex_3_08EcommExcaSERS0_
libIex-3_0.so.29:_ZN7Iex_3_08EfbigExcC1EONSt7__cxx1112basic_stringIcSt11char_traitsIcESaIcEEE
libIex-3_0.so.29:_ZN7Iex_3_08EfbigExcC1EOS0_
libIex-3_0.so.29:_ZN7Iex_3_08EfbigExcC1EPKc
libIex-3_0.so.29:_ZN7Iex_3_08EfbigExcC1ERKNSt7__cxx1112basic_stringIcSt11char_traitsIcESaIcEEE
libIex-3_0.so.29:_ZN7Iex_3_08EfbigExcC1ERKS0_
libIex-3_0.so.29:_ZN7Iex_3_08EfbigExcC1ERNSt7__cxx1118basic_stringstreamIcSt11char_traitsIcESaIcEEE
libIex-3_0.so.29:_ZN7Iex_3_08EfbigExcC1Ev
libIex-3_0.so.29:_ZN7Iex_3_08EfbigExcC2EONSt7__cxx1112basic_stringIcSt11char_traitsIcESaIcEEE
libIex-3_0.so.29:_ZN7Iex_3_08EfbigExcC2EOS0_
libIex-3_0.so.29:_ZN7Iex_3_08EfbigExcC2EPKc
libIex-3_0.so.29:_ZN7Iex_3_08EfbigExcC2ERKNSt7__cxx1112basic_stringIcSt11char_traitsIcESaIcEEE
libIex-3_0.so.29:_ZN7Iex_3_08EfbigExcC2ERKS0_
libIex-3_0.so.29:_ZN7Iex_3_08EfbigExcC2ERNSt7__cxx1118basic_stringstreamIcSt11char_traitsIcESaIcEEE
libIex-3_0.so.29:_ZN7Iex_3_08EfbigExcC2Ev
libIex-3_0.so.29:_ZN7Iex_3_08EfbigExcD0Ev
libIex-3_0.so.29:_ZN7Iex_3_08EfbigExcD1Ev
libIex-3_0.so.29:_ZN7Iex_3_08EfbigExcD2Ev
libIex-3_0.so.29:_ZN7Iex_3_08EfbigExcaSEOS0_
libIex-3_0.so.29:_ZN7Iex_3_08EfbigExcaSERS0_
libIex-3_0.so.29:_ZN7Iex_3_08EidrmExcC1EONSt7__cxx1112basic_stringIcSt11char_traitsIcESaIcEEE
libIex-3_0.so.29:_ZN7Iex_3_08EidrmExcC1EOS0_
libIex-3_0.so.29:_ZN7Iex_3_08EidrmExcC1EPKc
libIex-3_0.so.29:_ZN7Iex_3_08EidrmExcC1ERKNSt7__cxx1112basic_stringIcSt11char_traitsIcESaIcEEE
libIex-3_0.so.29:_ZN7Iex_3_08EidrmExcC1ERKS0_
libIex-3_0.so.29:_ZN7Iex_3_08EidrmExcC1ERNSt7__cxx1118basic_stringstreamIcSt11char_traitsIcESaIcEEE
libIex-3_0.so.29:_ZN7Iex_3_08EidrmExcC1Ev
libIex-3_0.so.29:_ZN7Iex_3_08EidrmExcC2EONSt7__cxx1112basic_stringIcSt11char_traitsIcESaIcEEE
libIex-3_0.so.29:_ZN7Iex_3_08EidrmExcC2EOS0_
libIex-3_0.so.29:_ZN7Iex_3_08EidrmExcC2EPKc
libIex-3_0.so.29:_ZN7Iex_3_08EidrmExcC2ERKNSt7__cxx1112basic_stringIcSt11char_traitsIcESaIcEEE
libIex-3_0.so.29:_ZN7Iex_3_08EidrmExcC2ERKS0_
libIex-3_0.so.29:_ZN7Iex_3_08EidrmExcC2ERNSt7__cxx1118basic_stringstreamIcSt11char_traitsIcESaIcEEE
libIex-3_0.so.29:_ZN7Iex_3_08EidrmExcC2Ev
libIex-3_0.so.29:_ZN7Iex_3_08EidrmExcD0Ev
libIex-3_0.so.29:_ZN7Iex_3_08EidrmExcD1Ev
libIex-3_0.so.29:_ZN7Iex_3_08EidrmExcD2Ev
libIex-3_0.so.29:_ZN7Iex_3_08EidrmExcaSEOS0_
libIex-3_0.so.29:_ZN7Iex_3_08EidrmExcaSERS0_
libIex-3_0.so.29:_ZN7Iex_3_08EinitExcC1EONSt7__cxx1112basic_stringIcSt11char_traitsIcESaIcEEE
libIex-3_0.so.29:_ZN7Iex_3_08EinitExcC1EOS0_
libIex-3_0.so.29:_ZN7Iex_3_08EinitExcC1EPKc
libIex-3_0.so.29:_ZN7Iex_3_08EinitExcC1ERKNSt7__cxx1112basic_stringIcSt11char_traitsIcESaIcEEE
libIex-3_0.so.29:_ZN7Iex_3_08EinitExcC1ERKS0_
libIex-3_0.so.29:_ZN7Iex_3_08EinitExcC1ERNSt7__cxx1118basic_stringstreamIcSt11char_traitsIcESaIcEEE
libIex-3_0.so.29:_ZN7Iex_3_08EinitExcC1Ev
libIex-3_0.so.29:_ZN7Iex_3_08EinitExcC2EONSt7__cxx1112basic_stringIcSt11char_traitsIcESaIcEEE
libIex-3_0.so.29:_ZN7Iex_3_08EinitExcC2EOS0_
libIex-3_0.so.29:_ZN7Iex_3_08EinitExcC2EPKc
libIex-3_0.so.29:_ZN7Iex_3_08EinitExcC2ERKNSt7__cxx1112basic_stringIcSt11char_traitsIcESaIcEEE
libIex-3_0.so.29:_ZN7Iex_3_08EinitExcC2ERKS0_
libIex-3_0.so.29:_ZN7Iex_3_08EinitExcC2ERNSt7__cxx1118basic_stringstreamIcSt11char_traitsIcESaIcEEE
libIex-3_0.so.29:_ZN7Iex_3_08EinitExcC2Ev
libIex-3_0.so.29:_ZN7Iex_3_08EinitExcD0Ev
libIex-3_0.so.29:_ZN7Iex_3_08EinitExcD1Ev
libIex-3_0.so.29:_ZN7Iex_3_08EinitExcD2Ev
libIex-3_0.so.29:_ZN7Iex_3_08EinitExcaSEOS0_
libIex-3_0.so.29:_ZN7Iex_3_08EinitExcaSERS0_
libIex-3_0.so.29:_ZN7Iex_3_08EintrExcC1EONSt7__cxx1112basic_stringIcSt11char_traitsIcESaIcEEE
libIex-3_0.so.29:_ZN7Iex_3_08EintrExcC1EOS0_
libIex-3_0.so.29:_ZN7Iex_3_08EintrExcC1EPKc
libIex-3_0.so.29:_ZN7Iex_3_08EintrExcC1ERKNSt7__cxx1112basic_stringIcSt11char_traitsIcESaIcEEE
libIex-3_0.so.29:_ZN7Iex_3_08EintrExcC1ERKS0_
libIex-3_0.so.29:_ZN7Iex_3_08EintrExcC1ERNSt7__cxx1118basic_stringstreamIcSt11char_traitsIcESaIcEEE
libIex-3_0.so.29:_ZN7Iex_3_08EintrExcC1Ev
libIex-3_0.so.29:_ZN7Iex_3_08EintrExcC2EONSt7__cxx1112basic_stringIcSt11char_traitsIcESaIcEEE
libIex-3_0.so.29:_ZN7Iex_3_08EintrExcC2EOS0_
libIex-3_0.so.29:_ZN7Iex_3_08EintrExcC2EPKc
libIex-3_0.so.29:_ZN7Iex_3_08EintrExcC2ERKNSt7__cxx1112basic_stringIcSt11char_traitsIcESaIcEEE
libIex-3_0.so.29:_ZN7Iex_3_08EintrExcC2ERKS0_
libIex-3_0.so.29:_ZN7Iex_3_08EintrExcC2ERNSt7__cxx1118basic_stringstreamIcSt11char_traitsIcESaIcEEE
libIex-3_0.so.29:_ZN7Iex_3_08EintrExcC2Ev
libIex-3_0.so.29:_ZN7Iex_3_08EintrExcD0Ev
libIex-3_0.so.29:_ZN7Iex_3_08EintrExcD1Ev
libIex-3_0.so.29:_ZN7Iex_3_08EintrExcD2Ev
libIex-3_0.so.29:_ZN7Iex_3_08EintrExcaSEOS0_
libIex-3_0.so.29:_ZN7Iex_3_08EintrExcaSERS0_
libIex-3_0.so.29:_ZN7Iex_3_08EloopExcC1EONSt7__cxx1112basic_stringIcSt11char_traitsIcESaIcEEE
libIex-3_0.so.29:_ZN7Iex_3_08EloopExcC1EOS0_
libIex-3_0.so.29:_ZN7Iex_3_08EloopExcC1EPKc
libIex-3_0.so.29:_ZN7Iex_3_08EloopExcC1ERKNSt7__cxx1112basic_stringIcSt11char_traitsIcESaIcEEE
libIex-3_0.so.29:_ZN7Iex_3_08EloopExcC1ERKS0_
libIex-3_0.so.29:_ZN7Iex_3_08EloopExcC1ERNSt7__cxx1118basic_stringstreamIcSt11char_traitsIcESaIcEEE
libIex-3_0.so.29:_ZN7Iex_3_08EloopExcC1Ev
libIex-3_0.so.29:_ZN7Iex_3_08EloopExcC2EONSt7__cxx1112basic_stringIcSt11char_traitsIcESaIcEEE
libIex-3_0.so.29:_ZN7Iex_3_08EloopExcC2EOS0_
libIex-3_0.so.29:_ZN7Iex_3_08EloopExcC2EPKc
libIex-3_0.so.29:_ZN7Iex_3_08EloopExcC2ERKNSt7__cxx1112basic_stringIcSt11char_traitsIcESaIcEEE
libIex-3_0.so.29:_ZN7Iex_3_08EloopExcC2ERKS0_
libIex-3_0.so.29:_ZN7Iex_3_08EloopExcC2ERNSt7__cxx1118basic_stringstreamIcSt11char_traitsIcESaIcEEE
libIex-3_0.so.29:_ZN7Iex_3_08EloopExcC2Ev
libIex-3_0.so.29:_ZN7Iex_3_08EloopExcD0Ev
libIex-3_0.so.29:_ZN7Iex_3_08EloopExcD1Ev
libIex-3_0.so.29:_ZN7Iex_3_08EloopExcD2Ev
libIex-3_0.so.29:_ZN7Iex_3_08EloopExcaSEOS0_
libIex-3_0.so.29:_ZN7Iex_3_08EloopExcaSERS0_
libIex-3_0.so.29:_ZN7Iex_3_08EnosrExcC1EONSt7__cxx1112basic_stringIcSt11char_traitsIcESaIcEEE
libIex-3_0.so.29:_ZN7Iex_3_08EnosrExcC1EOS0_
libIex-3_0.so.29:_ZN7Iex_3_08EnosrExcC1EPKc
libIex-3_0.so.29:_ZN7Iex_3_08EnosrExcC1ERKNSt7__cxx1112basic_stringIcSt11char_traitsIcESaIcEEE
libIex-3_0.so.29:_ZN7Iex_3_08EnosrExcC1ERKS0_
libIex-3_0.so.29:_ZN7Iex_3_08EnosrExcC1ERNSt7__cxx1118basic_stringstreamIcSt11char_traitsIcESaIcEEE
libIex-3_0.so.29:_ZN7Iex_3_08EnosrExcC1Ev
libIex-3_0.so.29:_ZN7Iex_3_08EnosrExcC2EONSt7__cxx1112basic_stringIcSt11char_traitsIcESaIcEEE
libIex-3_0.so.29:_ZN7Iex_3_08EnosrExcC2EOS0_
libIex-3_0.so.29:_ZN7Iex_3_08EnosrExcC2EPKc
libIex-3_0.so.29:_ZN7Iex_3_08EnosrExcC2ERKNSt7__cxx1112basic_stringIcSt11char_traitsIcESaIcEEE
libIex-3_0.so.29:_ZN7Iex_3_08EnosrExcC2ERKS0_
libIex-3_0.so.29:_ZN7Iex_3_08EnosrExcC2ERNSt7__cxx1118basic_stringstreamIcSt11char_traitsIcESaIcEEE
libIex-3_0.so.29:_ZN7Iex_3_08EnosrExcC2Ev
libIex-3_0.so.29:_ZN7Iex_3_08EnosrExcD0Ev
libIex-3_0.so.29:_ZN7Iex_3_08EnosrExcD1Ev
libIex-3_0.so.29:_ZN7Iex_3_08EnosrExcD2Ev
libIex-3_0.so.29:_ZN7Iex_3_08EnosrExcaSEOS0_
libIex-3_0.so.29:_ZN7Iex_3_08EnosrExcaSERS0_
libIex-3_0.so.29:_ZN7Iex_3_08EnxioExcC1EONSt7__cxx1112basic_stringIcSt11char_traitsIcESaIcEEE
libIex-3_0.so.29:_ZN7Iex_3_08EnxioExcC1EOS0_
libIex-3_0.so.29:_ZN7Iex_3_08EnxioExcC1EPKc
libIex-3_0.so.29:_ZN7Iex_3_08EnxioExcC1ERKNSt7__cxx1112basic_stringIcSt11char_traitsIcESaIcEEE
libIex-3_0.so.29:_ZN7Iex_3_08EnxioExcC1ERKS0_
libIex-3_0.so.29:_ZN7Iex_3_08EnxioExcC1ERNSt7__cxx1118basic_stringstreamIcSt11char_traitsIcESaIcEEE
libIex-3_0.so.29:_ZN7Iex_3_08EnxioExcC1Ev
libIex-3_0.so.29:_ZN7Iex_3_08EnxioExcC2EONSt7__cxx1112basic_stringIcSt11char_traitsIcESaIcEEE
libIex-3_0.so.29:_ZN7Iex_3_08EnxioExcC2EOS0_
libIex-3_0.so.29:_ZN7Iex_3_08EnxioExcC2EPKc
libIex-3_0.so.29:_ZN7Iex_3_08EnxioExcC2ERKNSt7__cxx1112basic_stringIcSt11char_traitsIcESaIcEEE
libIex-3_0.so.29:_ZN7Iex_3_08EnxioExcC2ERKS0_
libIex-3_0.so.29:_ZN7Iex_3_08EnxioExcC2ERNSt7__cxx1118basic_stringstreamIcSt11char_traitsIcESaIcEEE
libIex-3_0.so.29:_ZN7Iex_3_08EnxioExcC2Ev
libIex-3_0.so.29:_ZN7Iex_3_08EnxioExcD0Ev
libIex-3_0.so.29:_ZN7Iex_3_08EnxioExcD1Ev
libIex-3_0.so.29:_ZN7Iex_3_08EnxioExcD2Ev
libIex-3_0.so.29:_ZN7Iex_3_08EnxioExcaSEOS0_
libIex-3_0.so.29:_ZN7Iex_3_08EnxioExcaSERS0_
libIex-3_0.so.29:_ZN7Iex_3_08EpermExcC1EONSt7__cxx1112basic_stringIcSt11char_traitsIcESaIcEEE
libIex-3_0.so.29:_ZN7Iex_3_08EpermExcC1EOS0_
libIex-3_0.so.29:_ZN7Iex_3_08EpermExcC1EPKc
libIex-3_0.so.29:_ZN7Iex_3_08EpermExcC1ERKNSt7__cxx1112basic_stringIcSt11char_traitsIcESaIcEEE
libIex-3_0.so.29:_ZN7Iex_3_08EpermExcC1ERKS0_
libIex-3_0.so.29:_ZN7Iex_3_08EpermExcC1ERNSt7__cxx1118basic_stringstreamIcSt11char_traitsIcESaIcEEE
libIex-3_0.so.29:_ZN7Iex_3_08EpermExcC1Ev
libIex-3_0.so.29:_ZN7Iex_3_08EpermExcC2EONSt7__cxx1112basic_stringIcSt11char_traitsIcESaIcEEE
libIex-3_0.so.29:_ZN7Iex_3_08EpermExcC2EOS0_
libIex-3_0.so.29:_ZN7Iex_3_08EpermExcC2EPKc
libIex-3_0.so.29:_ZN7Iex_3_08EpermExcC2ERKNSt7__cxx1112basic_stringIcSt11char_traitsIcESaIcEEE
libIex-3_0.so.29:_ZN7Iex_3_08EpermExcC2ERKS0_
libIex-3_0.so.29:_ZN7Iex_3_08EpermExcC2ERNSt7__cxx1118basic_stringstreamIcSt11char_traitsIcESaIcEEE
libIex-3_0.so.29:_ZN7Iex_3_08EpermExcC2Ev
libIex-3_0.so.29:_ZN7Iex_3_08EpermExcD0Ev
libIex-3_0.so.29:_ZN7Iex_3_08EpermExcD1Ev
libIex-3_0.so.29:_ZN7Iex_3_08EpermExcD2Ev
libIex-3_0.so.29:_ZN7Iex_3_08EpermExcaSEOS0_
libIex-3_0.so.29:_ZN7Iex_3_08EpermExcaSERS0_
libIex-3_0.so.29:_ZN7Iex_3_08EpipeExcC1EONSt7__cxx1112basic_stringIcSt11char_traitsIcESaIcEEE
libIex-3_0.so.29:_ZN7Iex_3_08EpipeExcC1EOS0_
libIex-3_0.so.29:_ZN7Iex_3_08EpipeExcC1EPKc
libIex-3_0.so.29:_ZN7Iex_3_08EpipeExcC1ERKNSt7__cxx1112basic_stringIcSt11char_traitsIcESaIcEEE
libIex-3_0.so.29:_ZN7Iex_3_08EpipeExcC1ERKS0_
libIex-3_0.so.29:_ZN7Iex_3_08EpipeExcC1ERNSt7__cxx1118basic_stringstreamIcSt11char_traitsIcESaIcEEE
libIex-3_0.so.29:_ZN7Iex_3_08EpipeExcC1Ev
libIex-3_0.so.29:_ZN7Iex_3_08EpipeExcC2EONSt7__cxx1112basic_stringIcSt11char_traitsIcESaIcEEE
libIex-3_0.so.29:_ZN7Iex_3_08EpipeExcC2EOS0_
libIex-3_0.so.29:_ZN7Iex_3_08EpipeExcC2EPKc
libIex-3_0.so.29:_ZN7Iex_3_08EpipeExcC2ERKNSt7__cxx1112basic_stringIcSt11char_traitsIcESaIcEEE
libIex-3_0.so.29:_ZN7Iex_3_08EpipeExcC2ERKS0_
libIex-3_0.so.29:_ZN7Iex_3_08EpipeExcC2ERNSt7__cxx1118basic_stringstreamIcSt11char_traitsIcESaIcEEE
libIex-3_0.so.29:_ZN7Iex_3_08EpipeExcC2Ev
libIex-3_0.so.29:_ZN7Iex_3_08EpipeExcD0Ev
libIex-3_0.so.29:_ZN7Iex_3_08EpipeExcD1Ev
libIex-3_0.so.29:_ZN7Iex_3_08EpipeExcD2Ev
libIex-3_0.so.29:_ZN7Iex_3_08EpipeExcaSEOS0_
libIex-3_0.so.29:_ZN7Iex_3_08EpipeExcaSERS0_
libIex-3_0.so.29:_ZN7Iex_3_08ErofsExcC1EONSt7__cxx1112basic_stringIcSt11char_traitsIcESaIcEEE
libIex-3_0.so.29:_ZN7Iex_3_08ErofsExcC1EOS0_
libIex-3_0.so.29:_ZN7Iex_3_08ErofsExcC1EPKc
libIex-3_0.so.29:_ZN7Iex_3_08ErofsExcC1ERKNSt7__cxx1112basic_stringIcSt11char_traitsIcESaIcEEE
libIex-3_0.so.29:_ZN7Iex_3_08ErofsExcC1ERKS0_
libIex-3_0.so.29:_ZN7Iex_3_08ErofsExcC1ERNSt7__cxx1118basic_stringstreamIcSt11char_traitsIcESaIcEEE
libIex-3_0.so.29:_ZN7Iex_3_08ErofsExcC1Ev
libIex-3_0.so.29:_ZN7Iex_3_08ErofsExcC2EONSt7__cxx1112basic_stringIcSt11char_traitsIcESaIcEEE
libIex-3_0.so.29:_ZN7Iex_3_08ErofsExcC2EOS0_
libIex-3_0.so.29:_ZN7Iex_3_08ErofsExcC2EPKc
libIex-3_0.so.29:_ZN7Iex_3_08ErofsExcC2ERKNSt7__cxx1112basic_stringIcSt11char_traitsIcESaIcEEE
libIex-3_0.so.29:_ZN7Iex_3_08ErofsExcC2ERKS0_
libIex-3_0.so.29:_ZN7Iex_3_08ErofsExcC2ERNSt7__cxx1118basic_stringstreamIcSt11char_traitsIcESaIcEEE
libIex-3_0.so.29:_ZN7Iex_3_08ErofsExcC2Ev
libIex-3_0.so.29:_ZN7Iex_3_08ErofsExcD0Ev
libIex-3_0.so.29:_ZN7Iex_3_08ErofsExcD1Ev
libIex-3_0.so.29:_ZN7Iex_3_08ErofsExcD2Ev
libIex-3_0.so.29:_ZN7Iex_3_08ErofsExcaSEOS0_
libIex-3_0.so.29:_ZN7Iex_3_08ErofsExcaSERS0_
libIex-3_0.so.29:_ZN7Iex_3_08ErrnoExcC1EONSt7__cxx1112basic_stringIcSt11char_traitsIcESaIcEEE
libIex-3_0.so.29:_ZN7Iex_3_08ErrnoExcC1EOS0_
libIex-3_0.so.29:_ZN7Iex_3_08ErrnoExcC1EPKc
libIex-3_0.so.29:_ZN7Iex_3_08ErrnoExcC1ERKNSt7__cxx1112basic_stringIcSt11char_traitsIcESaIcEEE
libIex-3_0.so.29:_ZN7Iex_3_08ErrnoExcC1ERKS0_
libIex-3_0.so.29:_ZN7Iex_3_08ErrnoExcC1ERNSt7__cxx1118basic_stringstreamIcSt11char_traitsIcESaIcEEE
libIex-3_0.so.29:_ZN7Iex_3_08ErrnoExcC1Ev
libIex-3_0.so.29:_ZN7Iex_3_08ErrnoExcC2EONSt7__cxx1112basic_stringIcSt11char_traitsIcESaIcEEE
libIex-3_0.so.29:_ZN7Iex_3_08ErrnoExcC2EOS0_
libIex-3_0.so.29:_ZN7Iex_3_08ErrnoExcC2EPKc
libIex-3_0.so.29:_ZN7Iex_3_08ErrnoExcC2ERKNSt7__cxx1112basic_stringIcSt11char_traitsIcESaIcEEE
libIex-3_0.so.29:_ZN7Iex_3_08ErrnoExcC2ERKS0_
libIex-3_0.so.29:_ZN7Iex_3_08ErrnoExcC2ERNSt7__cxx1118basic_stringstreamIcSt11char_traitsIcESaIcEEE
libIex-3_0.so.29:_ZN7Iex_3_08ErrnoExcC2Ev
libIex-3_0.so.29:_ZN7Iex_3_08ErrnoExcD0Ev
libIex-3_0.so.29:_ZN7Iex_3_08ErrnoExcD1Ev
libIex-3_0.so.29:_ZN7Iex_3_08ErrnoExcD2Ev
libIex-3_0.so.29:_ZN7Iex_3_08ErrnoExcaSEOS0_
libIex-3_0.so.29:_ZN7Iex_3_08ErrnoExcaSERS0_
libIex-3_0.so.29:_ZN7Iex_3_08EsrchExcC1EONSt7__cxx1112basic_stringIcSt11char_traitsIcESaIcEEE
libIex-3_0.so.29:_ZN7Iex_3_08EsrchExcC1EOS0_
libIex-3_0.so.29:_ZN7Iex_3_08EsrchExcC1EPKc
libIex-3_0.so.29:_ZN7Iex_3_08EsrchExcC1ERKNSt7__cxx1112basic_stringIcSt11char_traitsIcESaIcEEE
libIex-3_0.so.29:_ZN7Iex_3_08EsrchExcC1ERKS0_
libIex-3_0.so.29:_ZN7Iex_3_08EsrchExcC1ERNSt7__cxx1118basic_stringstreamIcSt11char_traitsIcESaIcEEE
libIex-3_0.so.29:_ZN7Iex_3_08EsrchExcC1Ev
libIex-3_0.so.29:_ZN7Iex_3_08EsrchExcC2EONSt7__cxx1112basic_stringIcSt11char_traitsIcESaIcEEE
libIex-3_0.so.29:_ZN7Iex_3_08EsrchExcC2EOS0_
libIex-3_0.so.29:_ZN7Iex_3_08EsrchExcC2EPKc
libIex-3_0.so.29:_ZN7Iex_3_08EsrchExcC2ERKNSt7__cxx1112basic_stringIcSt11char_traitsIcESaIcEEE
libIex-3_0.so.29:_ZN7Iex_3_08EsrchExcC2ERKS0_
libIex-3_0.so.29:_ZN7Iex_3_08EsrchExcC2ERNSt7__cxx1118basic_stringstreamIcSt11char_traitsIcESaIcEEE
libIex-3_0.so.29:_ZN7Iex_3_08EsrchExcC2Ev
libIex-3_0.so.29:_ZN7Iex_3_08EsrchExcD0Ev
libIex-3_0.so.29:_ZN7Iex_3_08EsrchExcD1Ev
libIex-3_0.so.29:_ZN7Iex_3_08EsrchExcD2Ev
libIex-3_0.so.29:_ZN7Iex_3_08EsrchExcaSEOS0_
libIex-3_0.so.29:_ZN7Iex_3_08EsrchExcaSERS0_
libIex-3_0.so.29:_ZN7Iex_3_08EtimeExcC1EONSt7__cxx1112basic_stringIcSt11char_traitsIcESaIcEEE
libIex-3_0.so.29:_ZN7Iex_3_08EtimeExcC1EOS0_
libIex-3_0.so.29:_ZN7Iex_3_08EtimeExcC1EPKc
libIex-3_0.so.29:_ZN7Iex_3_08EtimeExcC1ERKNSt7__cxx1112basic_stringIcSt11char_traitsIcESaIcEEE
libIex-3_0.so.29:_ZN7Iex_3_08EtimeExcC1ERKS0_
libIex-3_0.so.29:_ZN7Iex_3_08EtimeExcC1ERNSt7__cxx1118basic_stringstreamIcSt11char_traitsIcESaIcEEE
libIex-3_0.so.29:_ZN7Iex_3_08EtimeExcC1Ev
libIex-3_0.so.29:_ZN7Iex_3_08EtimeExcC2EONSt7__cxx1112basic_stringIcSt11char_traitsIcESaIcEEE
libIex-3_0.so.29:_ZN7Iex_3_08EtimeExcC2EOS0_
libIex-3_0.so.29:_ZN7Iex_3_08EtimeExcC2EPKc
libIex-3_0.so.29:_ZN7Iex_3_08EtimeExcC2ERKNSt7__cxx1112basic_stringIcSt11char_traitsIcESaIcEEE
libIex-3_0.so.29:_ZN7Iex_3_08EtimeExcC2ERKS0_
libIex-3_0.so.29:_ZN7Iex_3_08EtimeExcC2ERNSt7__cxx1118basic_stringstreamIcSt11char_traitsIcESaIcEEE
libIex-3_0.so.29:_ZN7Iex_3_08EtimeExcC2Ev
libIex-3_0.so.29:_ZN7Iex_3_08EtimeExcD0Ev
libIex-3_0.so.29:_ZN7Iex_3_08EtimeExcD1Ev
libIex-3_0.so.29:_ZN7Iex_3_08EtimeExcD2Ev
libIex-3_0.so.29:_ZN7Iex_3_08EtimeExcaSEOS0_
libIex-3_0.so.29:_ZN7Iex_3_08EtimeExcaSERS0_
libIex-3_0.so.29:_ZN7Iex_3_08ExdevExcC1EONSt7__cxx1112basic_stringIcSt11char_traitsIcESaIcEEE
libIex-3_0.so.29:_ZN7Iex_3_08ExdevExcC1EOS0_
libIex-3_0.so.29:_ZN7Iex_3_08ExdevExcC1EPKc
libIex-3_0.so.29:_ZN7Iex_3_08ExdevExcC1ERKNSt7__cxx1112basic_stringIcSt11char_traitsIcESaIcEEE
libIex-3_0.so.29:_ZN7Iex_3_08ExdevExcC1ERKS0_
libIex-3_0.so.29:_ZN7Iex_3_08ExdevExcC1ERNSt7__cxx1118basic_stringstreamIcSt11char_traitsIcESaIcEEE
libIex-3_0.so.29:_ZN7Iex_3_08ExdevExcC1Ev
libIex-3_0.so.29:_ZN7Iex_3_08ExdevExcC2EONSt7__cxx1112basic_stringIcSt11char_traitsIcESaIcEEE
libIex-3_0.so.29:_ZN7Iex_3_08ExdevExcC2EOS0_
libIex-3_0.so.29:_ZN7Iex_3_08ExdevExcC2EPKc
libIex-3_0.so.29:_ZN7Iex_3_08ExdevExcC2ERKNSt7__cxx1112basic_stringIcSt11char_traitsIcESaIcEEE
libIex-3_0.so.29:_ZN7Iex_3_08ExdevExcC2ERKS0_
libIex-3_0.so.29:_ZN7Iex_3_08ExdevExcC2ERNSt7__cxx1118basic_stringstreamIcSt11char_traitsIcESaIcEEE
libIex-3_0.so.29:_ZN7Iex_3_08ExdevExcC2Ev
libIex-3_0.so.29:_ZN7Iex_3_08ExdevExcD0Ev
libIex-3_0.so.29:_ZN7Iex_3_08ExdevExcD1Ev
libIex-3_0.so.29:_ZN7Iex_3_08ExdevExcD2Ev
libIex-3_0.so.29:_ZN7Iex_3_08ExdevExcaSEOS0_
libIex-3_0.so.29:_ZN7Iex_3_08ExdevExcaSERS0_
libIex-3_0.so.29:_ZN7Iex_3_08InputExcC1EONSt7__cxx1112basic_stringIcSt11char_traitsIcESaIcEEE
libIex-3_0.so.29:_ZN7Iex_3_08InputExcC1EOS0_
libIex-3_0.so.29:_ZN7Iex_3_08InputExcC1EPKc
libIex-3_0.so.29:_ZN7Iex_3_08InputExcC1ERKNSt7__cxx1112basic_stringIcSt11char_traitsIcESaIcEEE
libIex-3_0.so.29:_ZN7Iex_3_08InputExcC1ERKS0_
libIex-3_0.so.29:_ZN7Iex_3_08InputExcC1ERNSt7__cxx1118basic_stringstreamIcSt11char_traitsIcESaIcEEE
libIex-3_0.so.29:_ZN7Iex_3_08InputExcC1Ev
libIex-3_0.so.29:_ZN7Iex_3_08InputExcC2EONSt7__cxx1112basic_stringIcSt11char_traitsIcESaIcEEE
libIex-3_0.so.29:_ZN7Iex_3_08InputExcC2EOS0_
libIex-3_0.so.29:_ZN7Iex_3_08InputExcC2EPKc
libIex-3_0.so.29:_ZN7Iex_3_08InputExcC2ERKNSt7__cxx1112basic_stringIcSt11char_traitsIcESaIcEEE
libIex-3_0.so.29:_ZN7Iex_3_08InputExcC2ERKS0_
libIex-3_0.so.29:_ZN7Iex_3_08InputExcC2ERNSt7__cxx1118basic_stringstreamIcSt11char_traitsIcESaIcEEE
libIex-3_0.so.29:_ZN7Iex_3_08InputExcC2Ev
libIex-3_0.so.29:_ZN7Iex_3_08InputExcD0Ev
libIex-3_0.so.29:_ZN7Iex_3_08InputExcD1Ev
libIex-3_0.so.29:_ZN7Iex_3_08InputExcD2Ev
libIex-3_0.so.29:_ZN7Iex_3_08InputExcaSEOS0_
libIex-3_0.so.29:_ZN7Iex_3_08InputExcaSERS0_
libIex-3_0.so.29:_ZN7Iex_3_08LogicExcC1EONSt7__cxx1112basic_stringIcSt11char_traitsIcESaIcEEE
libIex-3_0.so.29:_ZN7Iex_3_08LogicExcC1EOS0_
libIex-3_0.so.29:_ZN7Iex_3_08LogicExcC1EPKc
libIex-3_0.so.29:_ZN7Iex_3_08LogicExcC1ERKNSt7__cxx1112basic_stringIcSt11char_traitsIcESaIcEEE
libIex-3_0.so.29:_ZN7Iex_3_08LogicExcC1ERKS0_
libIex-3_0.so.29:_ZN7Iex_3_08LogicExcC1ERNSt7__cxx1118basic_stringstreamIcSt11char_traitsIcESaIcEEE
libIex-3_0.so.29:_ZN7Iex_3_08LogicExcC1Ev
libIex-3_0.so.29:_ZN7Iex_3_08LogicExcC2EONSt7__cxx1112basic_stringIcSt11char_traitsIcESaIcEEE
libIex-3_0.so.29:_ZN7Iex_3_08LogicExcC2EOS0_
libIex-3_0.so.29:_ZN7Iex_3_08LogicExcC2EPKc
libIex-3_0.so.29:_ZN7Iex_3_08LogicExcC2ERKNSt7__cxx1112basic_stringIcSt11char_traitsIcESaIcEEE
libIex-3_0.so.29:_ZN7Iex_3_08LogicExcC2ERKS0_
libIex-3_0.so.29:_ZN7Iex_3_08LogicExcC2ERNSt7__cxx1118basic_stringstreamIcSt11char_traitsIcESaIcEEE
libIex-3_0.so.29:_ZN7Iex_3_08LogicExcC2Ev
libIex-3_0.so.29:_ZN7Iex_3_08LogicExcD0Ev
libIex-3_0.so.29:_ZN7Iex_3_08LogicExcD1Ev
libIex-3_0.so.29:_ZN7Iex_3_08LogicExcD2Ev
libIex-3_0.so.29:_ZN7Iex_3_08LogicExcaSEOS0_
libIex-3_0.so.29:_ZN7Iex_3_08LogicExcaSERS0_
libIex-3_0.so.29:_ZN7Iex_3_09EaccesExcC1EONSt7__cxx1112basic_stringIcSt11char_traitsIcESaIcEEE
libIex-3_0.so.29:_ZN7Iex_3_09EaccesExcC1EOS0_
libIex-3_0.so.29:_ZN7Iex_3_09EaccesExcC1EPKc
libIex-3_0.so.29:_ZN7Iex_3_09EaccesExcC1ERKNSt7__cxx1112basic_stringIcSt11char_traitsIcESaIcEEE
libIex-3_0.so.29:_ZN7Iex_3_09EaccesExcC1ERKS0_
libIex-3_0.so.29:_ZN7Iex_3_09EaccesExcC1ERNSt7__cxx1118basic_stringstreamIcSt11char_traitsIcESaIcEEE
libIex-3_0.so.29:_ZN7Iex_3_09EaccesExcC1Ev
libIex-3_0.so.29:_ZN7Iex_3_09EaccesExcC2EONSt7__cxx1112basic_stringIcSt11char_traitsIcESaIcEEE
libIex-3_0.so.29:_ZN7Iex_3_09EaccesExcC2EOS0_
libIex-3_0.so.29:_ZN7Iex_3_09EaccesExcC2EPKc
libIex-3_0.so.29:_ZN7Iex_3_09EaccesExcC2ERKNSt7__cxx1112basic_stringIcSt11char_traitsIcESaIcEEE
libIex-3_0.so.29:_ZN7Iex_3_09EaccesExcC2ERKS0_
libIex-3_0.so.29:_ZN7Iex_3_09EaccesExcC2ERNSt7__cxx1118basic_stringstreamIcSt11char_traitsIcESaIcEEE
libIex-3_0.so.29:_ZN7Iex_3_09EaccesExcC2Ev
libIex-3_0.so.29:_ZN7Iex_3_09EaccesExcD0Ev
libIex-3_0.so.29:_ZN7Iex_3_09EaccesExcD1Ev
libIex-3_0.so.29:_ZN7Iex_3_09EaccesExcD2Ev
libIex-3_0.so.29:_ZN7Iex_3_09EaccesExcaSEOS0_
libIex-3_0.so.29:_ZN7Iex_3_09EaccesExcaSERS0_
libIex-3_0.so.29:_ZN7Iex_3_09EagainExcC1EONSt7__cxx1112basic_stringIcSt11char_traitsIcESaIcEEE
libIex-3_0.so.29:_ZN7Iex_3_09EagainExcC1EOS0_
libIex-3_0.so.29:_ZN7Iex_3_09EagainExcC1EPKc
libIex-3_0.so.29:_ZN7Iex_3_09EagainExcC1ERKNSt7__cxx1112basic_stringIcSt11char_traitsIcESaIcEEE
libIex-3_0.so.29:_ZN7Iex_3_09EagainExcC1ERKS0_
libIex-3_0.so.29:_ZN7Iex_3_09EagainExcC1ERNSt7__cxx1118basic_stringstreamIcSt11char_traitsIcESaIcEEE
libIex-3_0.so.29:_ZN7Iex_3_09EagainExcC1Ev
libIex-3_0.so.29:_ZN7Iex_3_09EagainExcC2EONSt7__cxx1112basic_stringIcSt11char_traitsIcESaIcEEE
libIex-3_0.so.29:_ZN7Iex_3_09EagainExcC2EOS0_
libIex-3_0.so.29:_ZN7Iex_3_09EagainExcC2EPKc
libIex-3_0.so.29:_ZN7Iex_3_09EagainExcC2ERKNSt7__cxx1112basic_stringIcSt11char_traitsIcESaIcEEE
libIex-3_0.so.29:_ZN7Iex_3_09EagainExcC2ERKS0_
libIex-3_0.so.29:_ZN7Iex_3_09EagainExcC2ERNSt7__cxx1118basic_stringstreamIcSt11char_traitsIcESaIcEEE
libIex-3_0.so.29:_ZN7Iex_3_09EagainExcC2Ev
libIex-3_0.so.29:_ZN7Iex_3_09EagainExcD0Ev
libIex-3_0.so.29:_ZN7Iex_3_09EagainExcD1Ev
libIex-3_0.so.29:_ZN7Iex_3_09EagainExcD2Ev
libIex-3_0.so.29:_ZN7Iex_3_09EagainExcaSEOS0_
libIex-3_0.so.29:_ZN7Iex_3_09EagainExcaSERS0_
libIex-3_0.so.29:_ZN7Iex_3_09EbadfdExcC1EONSt7__cxx1112basic_stringIcSt11char_traitsIcESaIcEEE
libIex-3_0.so.29:_ZN7Iex_3_09EbadfdExcC1EOS0_
libIex-3_0.so.29:_ZN7Iex_3_09EbadfdExcC1EPKc
libIex-3_0.so.29:_ZN7Iex_3_09EbadfdExcC1ERKNSt7__cxx1112basic_stringIcSt11char_traitsIcESaIcEEE
libIex-3_0.so.29:_ZN7Iex_3_09EbadfdExcC1ERKS0_
libIex-3_0.so.29:_ZN7Iex_3_09EbadfdExcC1ERNSt7__cxx1118basic_stringstreamIcSt11char_traitsIcESaIcEEE
libIex-3_0.so.29:_ZN7Iex_3_09EbadfdExcC1Ev
libIex-3_0.so.29:_ZN7Iex_3_09EbadfdExcC2EONSt7__cxx1112basic_stringIcSt11char_traitsIcESaIcEEE
libIex-3_0.so.29:_ZN7Iex_3_09EbadfdExcC2EOS0_
libIex-3_0.so.29:_ZN7Iex_3_09EbadfdExcC2EPKc
libIex-3_0.so.29:_ZN7Iex_3_09EbadfdExcC2ERKNSt7__cxx1112basic_stringIcSt11char_traitsIcESaIcEEE
libIex-3_0.so.29:_ZN7Iex_3_09EbadfdExcC2ERKS0_
libIex-3_0.so.29:_ZN7Iex_3_09EbadfdExcC2ERNSt7__cxx1118basic_stringstreamIcSt11char_traitsIcESaIcEEE
libIex-3_0.so.29:_ZN7Iex_3_09EbadfdExcC2Ev
libIex-3_0.so.29:_ZN7Iex_3_09EbadfdExcD0Ev
libIex-3_0.so.29:_ZN7Iex_3_09EbadfdExcD1Ev
libIex-3_0.so.29:_ZN7Iex_3_09EbadfdExcD2Ev
libIex-3_0.so.29:_ZN7Iex_3_09EbadfdExcaSEOS0_
libIex-3_0.so.29:_ZN7Iex_3_09EbadfdExcaSERS0_
libIex-3_0.so.29:_ZN7Iex_3_09EbfontExcC1EONSt7__cxx1112basic_stringIcSt11char_traitsIcESaIcEEE
libIex-3_0.so.29:_ZN7Iex_3_09EbfontExcC1EOS0_
libIex-3_0.so.29:_ZN7Iex_3_09EbfontExcC1EPKc
libIex-3_0.so.29:_ZN7Iex_3_09EbfontExcC1ERKNSt7__cxx1112basic_stringIcSt11char_traitsIcESaIcEEE
libIex-3_0.so.29:_ZN7Iex_3_09EbfontExcC1ERKS0_
libIex-3_0.so.29:_ZN7Iex_3_09EbfontExcC1ERNSt7__cxx1118basic_stringstreamIcSt11char_traitsIcESaIcEEE
libIex-3_0.so.29:_ZN7Iex_3_09EbfontExcC1Ev
libIex-3_0.so.29:_ZN7Iex_3_09EbfontExcC2EONSt7__cxx1112basic_stringIcSt11char_traitsIcESaIcEEE
libIex-3_0.so.29:_ZN7Iex_3_09EbfontExcC2EOS0_
libIex-3_0.so.29:_ZN7Iex_3_09EbfontExcC2EPKc
libIex-3_0.so.29:_ZN7Iex_3_09EbfontExcC2ERKNSt7__cxx1112basic_stringIcSt11char_traitsIcESaIcEEE
libIex-3_0.so.29:_ZN7Iex_3_09EbfontExcC2ERKS0_
libIex-3_0.so.29:_ZN7Iex_3_09EbfontExcC2ERNSt7__cxx1118basic_stringstreamIcSt11char_traitsIcESaIcEEE
libIex-3_0.so.29:_ZN7Iex_3_09EbfontExcC2Ev
libIex-3_0.so.29:_ZN7Iex_3_09EbfontExcD0Ev
libIex-3_0.so.29:_ZN7Iex_3_09EbfontExcD1Ev
libIex-3_0.so.29:_ZN7Iex_3_09EbfontExcD2Ev
libIex-3_0.so.29:_ZN7Iex_3_09EbfontExcaSEOS0_
libIex-3_0.so.29:_ZN7Iex_3_09EbfontExcaSERS0_
libIex-3_0.so.29:_ZN7Iex_3_09EchildExcC1EONSt7__cxx1112basic_stringIcSt11char_traitsIcESaIcEEE
libIex-3_0.so.29:_ZN7Iex_3_09EchildExcC1EOS0_
libIex-3_0.so.29:_ZN7Iex_3_09EchildExcC1EPKc
libIex-3_0.so.29:_ZN7Iex_3_09EchildExcC1ERKNSt7__cxx1112basic_stringIcSt11char_traitsIcESaIcEEE
libIex-3_0.so.29:_ZN7Iex_3_09EchildExcC1ERKS0_
libIex-3_0.so.29:_ZN7Iex_3_09EchildExcC1ERNSt7__cxx1118basic_stringstreamIcSt11char_traitsIcESaIcEEE
libIex-3_0.so.29:_ZN7Iex_3_09EchildExcC1Ev
libIex-3_0.so.29:_ZN7Iex_3_09EchildExcC2EONSt7__cxx1112basic_stringIcSt11char_traitsIcESaIcEEE
libIex-3_0.so.29:_ZN7Iex_3_09EchildExcC2EOS0_
libIex-3_0.so.29:_ZN7Iex_3_09EchildExcC2EPKc
libIex-3_0.so.29:_ZN7Iex_3_09EchildExcC2ERKNSt7__cxx1112basic_stringIcSt11char_traitsIcESaIcEEE
libIex-3_0.so.29:_ZN7Iex_3_09EchildExcC2ERKS0_
libIex-3_0.so.29:_ZN7Iex_3_09EchildExcC2ERNSt7__cxx1118basic_stringstreamIcSt11char_traitsIcESaIcEEE
libIex-3_0.so.29:_ZN7Iex_3_09EchildExcC2Ev
libIex-3_0.so.29:_ZN7Iex_3_09EchildExcD0Ev
libIex-3_0.so.29:_ZN7Iex_3_09EchildExcD1Ev
libIex-3_0.so.29:_ZN7Iex_3_09EchildExcD2Ev
libIex-3_0.so.29:_ZN7Iex_3_09EchildExcaSEOS0_
libIex-3_0.so.29:_ZN7Iex_3_09EchildExcaSERS0_
libIex-3_0.so.29:_ZN7Iex_3_09EchrngExcC1EONSt7__cxx1112basic_stringIcSt11char_traitsIcESaIcEEE
libIex-3_0.so.29:_ZN7Iex_3_09EchrngExcC1EOS0_
libIex-3_0.so.29:_ZN7Iex_3_09EchrngExcC1EPKc
libIex-3_0.so.29:_ZN7Iex_3_09EchrngExcC1ERKNSt7__cxx1112basic_stringIcSt11char_traitsIcESaIcEEE
libIex-3_0.so.29:_ZN7Iex_3_09EchrngExcC1ERKS0_
libIex-3_0.so.29:_ZN7Iex_3_09EchrngExcC1ERNSt7__cxx1118basic_stringstreamIcSt11char_traitsIcESaIcEEE
libIex-3_0.so.29:_ZN7Iex_3_09EchrngExcC1Ev
libIex-3_0.so.29:_ZN7Iex_3_09EchrngExcC2EONSt7__cxx1112basic_stringIcSt11char_traitsIcESaIcEEE
libIex-3_0.so.29:_ZN7Iex_3_09EchrngExcC2EOS0_
libIex-3_0.so.29:_ZN7Iex_3_09EchrngExcC2EPKc
libIex-3_0.so.29:_ZN7Iex_3_09EchrngExcC2ERKNSt7__cxx1112basic_stringIcSt11char_traitsIcESaIcEEE
libIex-3_0.so.29:_ZN7Iex_3_09EchrngExcC2ERKS0_
libIex-3_0.so.29:_ZN7Iex_3_09EchrngExcC2ERNSt7__cxx1118basic_stringstreamIcSt11char_traitsIcESaIcEEE
libIex-3_0.so.29:_ZN7Iex_3_09EchrngExcC2Ev
libIex-3_0.so.29:_ZN7Iex_3_09EchrngExcD0Ev
libIex-3_0.so.29:_ZN7Iex_3_09EchrngExcD1Ev
libIex-3_0.so.29:_ZN7Iex_3_09EchrngExcD2Ev
libIex-3_0.so.29:_ZN7Iex_3_09EchrngExcaSEOS0_
libIex-3_0.so.29:_ZN7Iex_3_09EchrngExcaSERS0_
libIex-3_0.so.29:_ZN7Iex_3_09EdquotExcC1EONSt7__cxx1112basic_stringIcSt11char_traitsIcESaIcEEE
libIex-3_0.so.29:_ZN7Iex_3_09EdquotExcC1EOS0_
libIex-3_0.so.29:_ZN7Iex_3_09EdquotExcC1EPKc
libIex-3_0.so.29:_ZN7Iex_3_09EdquotExcC1ERKNSt7__cxx1112basic_stringIcSt11char_traitsIcESaIcEEE
libIex-3_0.so.29:_ZN7Iex_3_09EdquotExcC1ERKS0_
libIex-3_0.so.29:_ZN7Iex_3_09EdquotExcC1ERNSt7__cxx1118basic_stringstreamIcSt11char_traitsIcESaIcEEE
libIex-3_0.so.29:_ZN7Iex_3_09EdquotExcC1Ev
libIex-3_0.so.29:_ZN7Iex_3_09EdquotExcC2EONSt7__cxx1112basic_stringIcSt11char_traitsIcESaIcEEE
libIex-3_0.so.29:_ZN7Iex_3_09EdquotExcC2EOS0_
libIex-3_0.so.29:_ZN7Iex_3_09EdquotExcC2EPKc
libIex-3_0.so.29:_ZN7Iex_3_09EdquotExcC2ERKNSt7__cxx1112basic_stringIcSt11char_traitsIcESaIcEEE
libIex-3_0.so.29:_ZN7Iex_3_09EdquotExcC2ERKS0_
libIex-3_0.so.29:_ZN7Iex_3_09EdquotExcC2ERNSt7__cxx1118basic_stringstreamIcSt11char_traitsIcESaIcEEE
libIex-3_0.so.29:_ZN7Iex_3_09EdquotExcC2Ev
libIex-3_0.so.29:_ZN7Iex_3_09EdquotExcD0Ev
libIex-3_0.so.29:_ZN7Iex_3_09EdquotExcD1Ev
libIex-3_0.so.29:_ZN7Iex_3_09EdquotExcD2Ev
libIex-3_0.so.29:_ZN7Iex_3_09EdquotExcaSEOS0_
libIex-3_0.so.29:_ZN7Iex_3_09EdquotExcaSERS0_
libIex-3_0.so.29:_ZN7Iex_3_09EemptyExcC1EONSt7__cxx1112basic_stringIcSt11char_traitsIcESaIcEEE
libIex-3_0.so.29:_ZN7Iex_3_09EemptyExcC1EOS0_
libIex-3_0.so.29:_ZN7Iex_3_09EemptyExcC1EPKc
libIex-3_0.so.29:_ZN7Iex_3_09EemptyExcC1ERKNSt7__cxx1112basic_stringIcSt11char_traitsIcESaIcEEE
libIex-3_0.so.29:_ZN7Iex_3_09EemptyExcC1ERKS0_
libIex-3_0.so.29:_ZN7Iex_3_09EemptyExcC1ERNSt7__cxx1118basic_stringstreamIcSt11char_traitsIcESaIcEEE
libIex-3_0.so.29:_ZN7Iex_3_09EemptyExcC1Ev
libIex-3_0.so.29:_ZN7Iex_3_09EemptyExcC2EONSt7__cxx1112basic_stringIcSt11char_traitsIcESaIcEEE
libIex-3_0.so.29:_ZN7Iex_3_09EemptyExcC2EOS0_
libIex-3_0.so.29:_ZN7Iex_3_09EemptyExcC2EPKc
libIex-3_0.so.29:_ZN7Iex_3_09EemptyExcC2ERKNSt7__cxx1112basic_stringIcSt11char_traitsIcESaIcEEE
libIex-3_0.so.29:_ZN7Iex_3_09EemptyExcC2ERKS0_
libIex-3_0.so.29:_ZN7Iex_3_09EemptyExcC2ERNSt7__cxx1118basic_stringstreamIcSt11char_traitsIcESaIcEEE
libIex-3_0.so.29:_ZN7Iex_3_09EemptyExcC2Ev
libIex-3_0.so.29:_ZN7Iex_3_09EemptyExcD0Ev
libIex-3_0.so.29:_ZN7Iex_3_09EemptyExcD1Ev
libIex-3_0.so.29:_ZN7Iex_3_09EemptyExcD2Ev
libIex-3_0.so.29:_ZN7Iex_3_09EemptyExcaSEOS0_
libIex-3_0.so.29:_ZN7Iex_3_09EemptyExcaSERS0_
libIex-3_0.so.29:_ZN7Iex_3_09EexistExcC1EONSt7__cxx1112basic_stringIcSt11char_traitsIcESaIcEEE
libIex-3_0.so.29:_ZN7Iex_3_09EexistExcC1EOS0_
libIex-3_0.so.29:_ZN7Iex_3_09EexistExcC1EPKc
libIex-3_0.so.29:_ZN7Iex_3_09EexistExcC1ERKNSt7__cxx1112basic_stringIcSt11char_traitsIcESaIcEEE
libIex-3_0.so.29:_ZN7Iex_3_09EexistExcC1ERKS0_
libIex-3_0.so.29:_ZN7Iex_3_09EexistExcC1ERNSt7__cxx1118basic_stringstreamIcSt11char_traitsIcESaIcEEE
libIex-3_0.so.29:_ZN7Iex_3_09EexistExcC1Ev
libIex-3_0.so.29:_ZN7Iex_3_09EexistExcC2EONSt7__cxx1112basic_stringIcSt11char_traitsIcESaIcEEE
libIex-3_0.so.29:_ZN7Iex_3_09EexistExcC2EOS0_
libIex-3_0.so.29:_ZN7Iex_3_09EexistExcC2EPKc
libIex-3_0.so.29:_ZN7Iex_3_09EexistExcC2ERKNSt7__cxx1112basic_stringIcSt11char_traitsIcESaIcEEE
libIex-3_0.so.29:_ZN7Iex_3_09EexistExcC2ERKS0_
libIex-3_0.so.29:_ZN7Iex_3_09EexistExcC2ERNSt7__cxx1118basic_stringstreamIcSt11char_traitsIcESaIcEEE
libIex-3_0.so.29:_ZN7Iex_3_09EexistExcC2Ev
libIex-3_0.so.29:_ZN7Iex_3_09EexistExcD0Ev
libIex-3_0.so.29:_ZN7Iex_3_09EexistExcD1Ev
libIex-3_0.so.29:_ZN7Iex_3_09EexistExcD2Ev
libIex-3_0.so.29:_ZN7Iex_3_09EexistExcaSEOS0_
libIex-3_0.so.29:_ZN7Iex_3_09EexistExcaSERS0_
libIex-3_0.so.29:_ZN7Iex_3_09EfaultExcC1EONSt7__cxx1112basic_stringIcSt11char_traitsIcESaIcEEE
libIex-3_0.so.29:_ZN7Iex_3_09EfaultExcC1EOS0_
libIex-3_0.so.29:_ZN7Iex_3_09EfaultExcC1EPKc
libIex-3_0.so.29:_ZN7Iex_3_09EfaultExcC1ERKNSt7__cxx1112basic_stringIcSt11char_traitsIcESaIcEEE
libIex-3_0.so.29:_ZN7Iex_3_09EfaultExcC1ERKS0_
libIex-3_0.so.29:_ZN7Iex_3_09EfaultExcC1ERNSt7__cxx1118basic_stringstreamIcSt11char_traitsIcESaIcEEE
libIex-3_0.so.29:_ZN7Iex_3_09EfaultExcC1Ev
libIex-3_0.so.29:_ZN7Iex_3_09EfaultExcC2EONSt7__cxx1112basic_stringIcSt11char_traitsIcESaIcEEE
libIex-3_0.so.29:_ZN7Iex_3_09EfaultExcC2EOS0_
libIex-3_0.so.29:_ZN7Iex_3_09EfaultExcC2EPKc
libIex-3_0.so.29:_ZN7Iex_3_09EfaultExcC2ERKNSt7__cxx1112basic_stringIcSt11char_traitsIcESaIcEEE
libIex-3_0.so.29:_ZN7Iex_3_09EfaultExcC2ERKS0_
libIex-3_0.so.29:_ZN7Iex_3_09EfaultExcC2ERNSt7__cxx1118basic_stringstreamIcSt11char_traitsIcESaIcEEE
libIex-3_0.so.29:_ZN7Iex_3_09EfaultExcC2Ev
libIex-3_0.so.29:_ZN7Iex_3_09EfaultExcD0Ev
libIex-3_0.so.29:_ZN7Iex_3_09EfaultExcD1Ev
libIex-3_0.so.29:_ZN7Iex_3_09EfaultExcD2Ev
libIex-3_0.so.29:_ZN7Iex_3_09EfaultExcaSEOS0_
libIex-3_0.so.29:_ZN7Iex_3_09EfaultExcaSERS0_
libIex-3_0.so.29:_ZN7Iex_3_09EilseqExcC1EONSt7__cxx1112basic_stringIcSt11char_traitsIcESaIcEEE
libIex-3_0.so.29:_ZN7Iex_3_09EilseqExcC1EOS0_
libIex-3_0.so.29:_ZN7Iex_3_09EilseqExcC1EPKc
libIex-3_0.so.29:_ZN7Iex_3_09EilseqExcC1ERKNSt7__cxx1112basic_stringIcSt11char_traitsIcESaIcEEE
libIex-3_0.so.29:_ZN7Iex_3_09EilseqExcC1ERKS0_
libIex-3_0.so.29:_ZN7Iex_3_09EilseqExcC1ERNSt7__cxx1118basic_stringstreamIcSt11char_traitsIcESaIcEEE
libIex-3_0.so.29:_ZN7Iex_3_09EilseqExcC1Ev
libIex-3_0.so.29:_ZN7Iex_3_09EilseqExcC2EONSt7__cxx1112basic_stringIcSt11char_traitsIcESaIcEEE
libIex-3_0.so.29:_ZN7Iex_3_09EilseqExcC2EOS0_
libIex-3_0.so.29:_ZN7Iex_3_09EilseqExcC2EPKc
libIex-3_0.so.29:_ZN7Iex_3_09EilseqExcC2ERKNSt7__cxx1112basic_stringIcSt11char_traitsIcESaIcEEE
libIex-3_0.so.29:_ZN7Iex_3_09EilseqExcC2ERKS0_
libIex-3_0.so.29:_ZN7Iex_3_09EilseqExcC2ERNSt7__cxx1118basic_stringstreamIcSt11char_traitsIcESaIcEEE
libIex-3_0.so.29:_ZN7Iex_3_09EilseqExcC2Ev
libIex-3_0.so.29:_ZN7Iex_3_09EilseqExcD0Ev
libIex-3_0.so.29:_ZN7Iex_3_09EilseqExcD1Ev
libIex-3_0.so.29:_ZN7Iex_3_09EilseqExcD2Ev
libIex-3_0.so.29:_ZN7Iex_3_09EilseqExcaSEOS0_
libIex-3_0.so.29:_ZN7Iex_3_09EilseqExcaSERS0_
libIex-3_0.so.29:_ZN7Iex_3_09EinvalExcC1EONSt7__cxx1112basic_stringIcSt11char_traitsIcESaIcEEE
libIex-3_0.so.29:_ZN7Iex_3_09EinvalExcC1EOS0_
libIex-3_0.so.29:_ZN7Iex_3_09EinvalExcC1EPKc
libIex-3_0.so.29:_ZN7Iex_3_09EinvalExcC1ERKNSt7__cxx1112basic_stringIcSt11char_traitsIcESaIcEEE
libIex-3_0.so.29:_ZN7Iex_3_09EinvalExcC1ERKS0_
libIex-3_0.so.29:_ZN7Iex_3_09EinvalExcC1ERNSt7__cxx1118basic_stringstreamIcSt11char_traitsIcESaIcEEE
libIex-3_0.so.29:_ZN7Iex_3_09EinvalExcC1Ev
libIex-3_0.so.29:_ZN7Iex_3_09EinvalExcC2EONSt7__cxx1112basic_stringIcSt11char_traitsIcESaIcEEE
libIex-3_0.so.29:_ZN7Iex_3_09EinvalExcC2EOS0_
libIex-3_0.so.29:_ZN7Iex_3_09EinvalExcC2EPKc
libIex-3_0.so.29:_ZN7Iex_3_09EinvalExcC2ERKNSt7__cxx1112basic_stringIcSt11char_traitsIcESaIcEEE
libIex-3_0.so.29:_ZN7Iex_3_09EinvalExcC2ERKS0_
libIex-3_0.so.29:_ZN7Iex_3_09EinvalExcC2ERNSt7__cxx1118basic_stringstreamIcSt11char_traitsIcESaIcEEE
libIex-3_0.so.29:_ZN7Iex_3_09EinvalExcC2Ev
libIex-3_0.so.29:_ZN7Iex_3_09EinvalExcD0Ev
libIex-3_0.so.29:_ZN7Iex_3_09EinvalExcD1Ev
libIex-3_0.so.29:_ZN7Iex_3_09EinvalExcD2Ev
libIex-3_0.so.29:_ZN7Iex_3_09EinvalExcaSEOS0_
libIex-3_0.so.29:_ZN7Iex_3_09EinvalExcaSERS0_
libIex-3_0.so.29:_ZN7Iex_3_09EisdirExcC1EONSt7__cxx1112basic_stringIcSt11char_traitsIcESaIcEEE
libIex-3_0.so.29:_ZN7Iex_3_09EisdirExcC1EOS0_
libIex-3_0.so.29:_ZN7Iex_3_09EisdirExcC1EPKc
libIex-3_0.so.29:_ZN7Iex_3_09EisdirExcC1ERKNSt7__cxx1112basic_stringIcSt11char_traitsIcESaIcEEE
libIex-3_0.so.29:_ZN7Iex_3_09EisdirExcC1ERKS0_
libIex-3_0.so.29:_ZN7Iex_3_09EisdirExcC1ERNSt7__cxx1118basic_stringstreamIcSt11char_traitsIcESaIcEEE
libIex-3_0.so.29:_ZN7Iex_3_09EisdirExcC1Ev
libIex-3_0.so.29:_ZN7Iex_3_09EisdirExcC2EONSt7__cxx1112basic_stringIcSt11char_traitsIcESaIcEEE
libIex-3_0.so.29:_ZN7Iex_3_09EisdirExcC2EOS0_
libIex-3_0.so.29:_ZN7Iex_3_09EisdirExcC2EPKc
libIex-3_0.so.29:_ZN7Iex_3_09EisdirExcC2ERKNSt7__cxx1112basic_stringIcSt11char_traitsIcESaIcEEE
libIex-3_0.so.29:_ZN7Iex_3_09EisdirExcC2ERKS0_
libIex-3_0.so.29:_ZN7Iex_3_09EisdirExcC2ERNSt7__cxx1118basic_stringstreamIcSt11char_traitsIcESaIcEEE
libIex-3_0.so.29:_ZN7Iex_3_09EisdirExcC2Ev
libIex-3_0.so.29:_ZN7Iex_3_09EisdirExcD0Ev
libIex-3_0.so.29:_ZN7Iex_3_09EisdirExcD1Ev
libIex-3_0.so.29:_ZN7Iex_3_09EisdirExcD2Ev
libIex-3_0.so.29:_ZN7Iex_3_09EisdirExcaSEOS0_
libIex-3_0.so.29:_ZN7Iex_3_09EisdirExcaSERS0_
libIex-3_0.so.29:_ZN7Iex_3_09EisnamExcC1EONSt7__cxx1112basic_stringIcSt11char_traitsIcESaIcEEE
libIex-3_0.so.29:_ZN7Iex_3_09EisnamExcC1EOS0_
libIex-3_0.so.29:_ZN7Iex_3_09EisnamExcC1EPKc
libIex-3_0.so.29:_ZN7Iex_3_09EisnamExcC1ERKNSt7__cxx1112basic_stringIcSt11char_traitsIcESaIcEEE
libIex-3_0.so.29:_ZN7Iex_3_09EisnamExcC1ERKS0_
libIex-3_0.so.29:_ZN7Iex_3_09EisnamExcC1ERNSt7__cxx1118basic_stringstreamIcSt11char_traitsIcESaIcEEE
libIex-3_0.so.29:_ZN7Iex_3_09EisnamExcC1Ev
libIex-3_0.so.29:_ZN7Iex_3_09EisnamExcC2EONSt7__cxx1112basic_stringIcSt11char_traitsIcESaIcEEE
libIex-3_0.so.29:_ZN7Iex_3_09EisnamExcC2EOS0_
libIex-3_0.so.29:_ZN7Iex_3_09EisnamExcC2EPKc
libIex-3_0.so.29:_ZN7Iex_3_09EisnamExcC2ERKNSt7__cxx1112basic_stringIcSt11char_traitsIcESaIcEEE
libIex-3_0.so.29:_ZN7Iex_3_09EisnamExcC2ERKS0_
libIex-3_0.so.29:_ZN7Iex_3_09EisnamExcC2ERNSt7__cxx1118basic_stringstreamIcSt11char_traitsIcESaIcEEE
libIex-3_0.so.29:_ZN7Iex_3_09EisnamExcC2Ev
libIex-3_0.so.29:_ZN7Iex_3_09EisnamExcD0Ev
libIex-3_0.so.29:_ZN7Iex_3_09EisnamExcD1Ev
libIex-3_0.so.29:_ZN7Iex_3_09EisnamExcD2Ev
libIex-3_0.so.29:_ZN7Iex_3_09EisnamExcaSEOS0_
libIex-3_0.so.29:_ZN7Iex_3_09EisnamExcaSERS0_
libIex-3_0.so.29:_ZN7Iex_3_09El2hltExcC1EONSt7__cxx1112basic_stringIcSt11char_traitsIcESaIcEEE
libIex-3_0.so.29:_ZN7Iex_3_09El2hltExcC1EOS0_
libIex-3_0.so.29:_ZN7Iex_3_09El2hltExcC1EPKc
libIex-3_0.so.29:_ZN7Iex_3_09El2hltExcC1ERKNSt7__cxx1112basic_stringIcSt11char_traitsIcESaIcEEE
libIex-3_0.so.29:_ZN7Iex_3_09El2hltExcC1ERKS0_
libIex-3_0.so.29:_ZN7Iex_3_09El2hltExcC1ERNSt7__cxx1118basic_stringstreamIcSt11char_traitsIcESaIcEEE
libIex-3_0.so.29:_ZN7Iex_3_09El2hltExcC1Ev
libIex-3_0.so.29:_ZN7Iex_3_09El2hltExcC2EONSt7__cxx1112basic_stringIcSt11char_traitsIcESaIcEEE
libIex-3_0.so.29:_ZN7Iex_3_09El2hltExcC2EOS0_
libIex-3_0.so.29:_ZN7Iex_3_09El2hltExcC2EPKc
libIex-3_0.so.29:_ZN7Iex_3_09El2hltExcC2ERKNSt7__cxx1112basic_stringIcSt11char_traitsIcESaIcEEE
libIex-3_0.so.29:_ZN7Iex_3_09El2hltExcC2ERKS0_
libIex-3_0.so.29:_ZN7Iex_3_09El2hltExcC2ERNSt7__cxx1118basic_stringstreamIcSt11char_traitsIcESaIcEEE
libIex-3_0.so.29:_ZN7Iex_3_09El2hltExcC2Ev
libIex-3_0.so.29:_ZN7Iex_3_09El2hltExcD0Ev
libIex-3_0.so.29:_ZN7Iex_3_09El2hltExcD1Ev
libIex-3_0.so.29:_ZN7Iex_3_09El2hltExcD2Ev
libIex-3_0.so.29:_ZN7Iex_3_09El2hltExcaSEOS0_
libIex-3_0.so.29:_ZN7Iex_3_09El2hltExcaSERS0_
libIex-3_0.so.29:_ZN7Iex_3_09El3hltExcC1EONSt7__cxx1112basic_stringIcSt11char_traitsIcESaIcEEE
libIex-3_0.so.29:_ZN7Iex_3_09El3hltExcC1EOS0_
libIex-3_0.so.29:_ZN7Iex_3_09El3hltExcC1EPKc
libIex-3_0.so.29:_ZN7Iex_3_09El3hltExcC1ERKNSt7__cxx1112basic_stringIcSt11char_traitsIcESaIcEEE
libIex-3_0.so.29:_ZN7Iex_3_09El3hltExcC1ERKS0_
libIex-3_0.so.29:_ZN7Iex_3_09El3hltExcC1ERNSt7__cxx1118basic_stringstreamIcSt11char_traitsIcESaIcEEE
libIex-3_0.so.29:_ZN7Iex_3_09El3hltExcC1Ev
libIex-3_0.so.29:_ZN7Iex_3_09El3hltExcC2EONSt7__cxx1112basic_stringIcSt11char_traitsIcESaIcEEE
libIex-3_0.so.29:_ZN7Iex_3_09El3hltExcC2EOS0_
libIex-3_0.so.29:_ZN7Iex_3_09El3hltExcC2EPKc
libIex-3_0.so.29:_ZN7Iex_3_09El3hltExcC2ERKNSt7__cxx1112basic_stringIcSt11char_traitsIcESaIcEEE
libIex-3_0.so.29:_ZN7Iex_3_09El3hltExcC2ERKS0_
libIex-3_0.so.29:_ZN7Iex_3_09El3hltExcC2ERNSt7__cxx1118basic_stringstreamIcSt11char_traitsIcESaIcEEE
libIex-3_0.so.29:_ZN7Iex_3_09El3hltExcC2Ev
libIex-3_0.so.29:_ZN7Iex_3_09El3hltExcD0Ev
libIex-3_0.so.29:_ZN7Iex_3_09El3hltExcD1Ev
libIex-3_0.so.29:_ZN7Iex_3_09El3hltExcD2Ev
libIex-3_0.so.29:_ZN7Iex_3_09El3hltExcaSEOS0_
libIex-3_0.so.29:_ZN7Iex_3_09El3hltExcaSERS0_
libIex-3_0.so.29:_ZN7Iex_3_09El3rstExcC1EONSt7__cxx1112basic_stringIcSt11char_traitsIcESaIcEEE
libIex-3_0.so.29:_ZN7Iex_3_09El3rstExcC1EOS0_
libIex-3_0.so.29:_ZN7Iex_3_09El3rstExcC1EPKc
libIex-3_0.so.29:_ZN7Iex_3_09El3rstExcC1ERKNSt7__cxx1112basic_stringIcSt11char_traitsIcESaIcEEE
libIex-3_0.so.29:_ZN7Iex_3_09El3rstExcC1ERKS0_
libIex-3_0.so.29:_ZN7Iex_3_09El3rstExcC1ERNSt7__cxx1118basic_stringstreamIcSt11char_traitsIcESaIcEEE
libIex-3_0.so.29:_ZN7Iex_3_09El3rstExcC1Ev
libIex-3_0.so.29:_ZN7Iex_3_09El3rstExcC2EONSt7__cxx1112basic_stringIcSt11char_traitsIcESaIcEEE
libIex-3_0.so.29:_ZN7Iex_3_09El3rstExcC2EOS0_
libIex-3_0.so.29:_ZN7Iex_3_09El3rstExcC2EPKc
libIex-3_0.so.29:_ZN7Iex_3_09El3rstExcC2ERKNSt7__cxx1112basic_stringIcSt11char_traitsIcESaIcEEE
libIex-3_0.so.29:_ZN7Iex_3_09El3rstExcC2ERKS0_
libIex-3_0.so.29:_ZN7Iex_3_09El3rstExcC2ERNSt7__cxx1118basic_stringstreamIcSt11char_traitsIcESaIcEEE
libIex-3_0.so.29:_ZN7Iex_3_09El3rstExcC2Ev
libIex-3_0.so.29:_ZN7Iex_3_09El3rstExcD0Ev
libIex-3_0.so.29:_ZN7Iex_3_09El3rstExcD1Ev
libIex-3_0.so.29:_ZN7Iex_3_09El3rstExcD2Ev
libIex-3_0.so.29:_ZN7Iex_3_09El3rstExcaSEOS0_
libIex-3_0.so.29:_ZN7Iex_3_09El3rstExcaSERS0_
libIex-3_0.so.29:_ZN7Iex_3_09ElnrngExcC1EONSt7__cxx1112basic_stringIcSt11char_traitsIcESaIcEEE
libIex-3_0.so.29:_ZN7Iex_3_09ElnrngExcC1EOS0_
libIex-3_0.so.29:_ZN7Iex_3_09ElnrngExcC1EPKc
libIex-3_0.so.29:_ZN7Iex_3_09ElnrngExcC1ERKNSt7__cxx1112basic_stringIcSt11char_traitsIcESaIcEEE
libIex-3_0.so.29:_ZN7Iex_3_09ElnrngExcC1ERKS0_
libIex-3_0.so.29:_ZN7Iex_3_09ElnrngExcC1ERNSt7__cxx1118basic_stringstreamIcSt11char_traitsIcESaIcEEE
libIex-3_0.so.29:_ZN7Iex_3_09ElnrngExcC1Ev
libIex-3_0.so.29:_ZN7Iex_3_09ElnrngExcC2EONSt7__cxx1112basic_stringIcSt11char_traitsIcESaIcEEE
libIex-3_0.so.29:_ZN7Iex_3_09ElnrngExcC2EOS0_
libIex-3_0.so.29:_ZN7Iex_3_09ElnrngExcC2EPKc
libIex-3_0.so.29:_ZN7Iex_3_09ElnrngExcC2ERKNSt7__cxx1112basic_stringIcSt11char_traitsIcESaIcEEE
libIex-3_0.so.29:_ZN7Iex_3_09ElnrngExcC2ERKS0_
libIex-3_0.so.29:_ZN7Iex_3_09ElnrngExcC2ERNSt7__cxx1118basic_stringstreamIcSt11char_traitsIcESaIcEEE
libIex-3_0.so.29:_ZN7Iex_3_09ElnrngExcC2Ev
libIex-3_0.so.29:_ZN7Iex_3_09ElnrngExcD0Ev
libIex-3_0.so.29:_ZN7Iex_3_09ElnrngExcD1Ev
libIex-3_0.so.29:_ZN7Iex_3_09ElnrngExcD2Ev
libIex-3_0.so.29:_ZN7Iex_3_09ElnrngExcaSEOS0_
libIex-3_0.so.29:_ZN7Iex_3_09ElnrngExcaSERS0_
libIex-3_0.so.29:_ZN7Iex_3_09EmfileExcC1EONSt7__cxx1112basic_stringIcSt11char_traitsIcESaIcEEE
libIex-3_0.so.29:_ZN7Iex_3_09EmfileExcC1EOS0_
libIex-3_0.so.29:_ZN7Iex_3_09EmfileExcC1EPKc
libIex-3_0.so.29:_ZN7Iex_3_09EmfileExcC1ERKNSt7__cxx1112basic_stringIcSt11char_traitsIcESaIcEEE
libIex-3_0.so.29:_ZN7Iex_3_09EmfileExcC1ERKS0_
libIex-3_0.so.29:_ZN7Iex_3_09EmfileExcC1ERNSt7__cxx1118basic_stringstreamIcSt11char_traitsIcESaIcEEE
libIex-3_0.so.29:_ZN7Iex_3_09EmfileExcC1Ev
libIex-3_0.so.29:_ZN7Iex_3_09EmfileExcC2EONSt7__cxx1112basic_stringIcSt11char_traitsIcESaIcEEE
libIex-3_0.so.29:_ZN7Iex_3_09EmfileExcC2EOS0_
libIex-3_0.so.29:_ZN7Iex_3_09EmfileExcC2EPKc
libIex-3_0.so.29:_ZN7Iex_3_09EmfileExcC2ERKNSt7__cxx1112basic_stringIcSt11char_traitsIcESaIcEEE
libIex-3_0.so.29:_ZN7Iex_3_09EmfileExcC2ERKS0_
libIex-3_0.so.29:_ZN7Iex_3_09EmfileExcC2ERNSt7__cxx1118basic_stringstreamIcSt11char_traitsIcESaIcEEE
libIex-3_0.so.29:_ZN7Iex_3_09EmfileExcC2Ev
libIex-3_0.so.29:_ZN7Iex_3_09EmfileExcD0Ev
libIex-3_0.so.29:_ZN7Iex_3_09EmfileExcD1Ev
libIex-3_0.so.29:_ZN7Iex_3_09EmfileExcD2Ev
libIex-3_0.so.29:_ZN7Iex_3_09EmfileExcaSEOS0_
libIex-3_0.so.29:_ZN7Iex_3_09EmfileExcaSERS0_
libIex-3_0.so.29:_ZN7Iex_3_09EmlinkExcC1EONSt7__cxx1112basic_stringIcSt11char_traitsIcESaIcEEE
libIex-3_0.so.29:_ZN7Iex_3_09EmlinkExcC1EOS0_
libIex-3_0.so.29:_ZN7Iex_3_09EmlinkExcC1EPKc
libIex-3_0.so.29:_ZN7Iex_3_09EmlinkExcC1ERKNSt7__cxx1112basic_stringIcSt11char_traitsIcESaIcEEE
libIex-3_0.so.29:_ZN7Iex_3_09EmlinkExcC1ERKS0_
libIex-3_0.so.29:_ZN7Iex_3_09EmlinkExcC1ERNSt7__cxx1118basic_stringstreamIcSt11char_traitsIcESaIcEEE
libIex-3_0.so.29:_ZN7Iex_3_09EmlinkExcC1Ev
libIex-3_0.so.29:_ZN7Iex_3_09EmlinkExcC2EONSt7__cxx1112basic_stringIcSt11char_traitsIcESaIcEEE
libIex-3_0.so.29:_ZN7Iex_3_09EmlinkExcC2EOS0_
libIex-3_0.so.29:_ZN7Iex_3_09EmlinkExcC2EPKc
libIex-3_0.so.29:_ZN7Iex_3_09EmlinkExcC2ERKNSt7__cxx1112basic_stringIcSt11char_traitsIcESaIcEEE
libIex-3_0.so.29:_ZN7Iex_3_09EmlinkExcC2ERKS0_
libIex-3_0.so.29:_ZN7Iex_3_09EmlinkExcC2ERNSt7__cxx1118basic_stringstreamIcSt11char_traitsIcESaIcEEE
libIex-3_0.so.29:_ZN7Iex_3_09EmlinkExcC2Ev
libIex-3_0.so.29:_ZN7Iex_3_09EmlinkExcD0Ev
libIex-3_0.so.29:_ZN7Iex_3_09EmlinkExcD1Ev
libIex-3_0.so.29:_ZN7Iex_3_09EmlinkExcD2Ev
libIex-3_0.so.29:_ZN7Iex_3_09EmlinkExcaSEOS0_
libIex-3_0.so.29:_ZN7Iex_3_09EmlinkExcaSERS0_
libIex-3_0.so.29:_ZN7Iex_3_09EnfileExcC1EONSt7__cxx1112basic_stringIcSt11char_traitsIcESaIcEEE
libIex-3_0.so.29:_ZN7Iex_3_09EnfileExcC1EOS0_
libIex-3_0.so.29:_ZN7Iex_3_09EnfileExcC1EPKc
libIex-3_0.so.29:_ZN7Iex_3_09EnfileExcC1ERKNSt7__cxx1112basic_stringIcSt11char_traitsIcESaIcEEE
libIex-3_0.so.29:_ZN7Iex_3_09EnfileExcC1ERKS0_
libIex-3_0.so.29:_ZN7Iex_3_09EnfileExcC1ERNSt7__cxx1118basic_stringstreamIcSt11char_traitsIcESaIcEEE
libIex-3_0.so.29:_ZN7Iex_3_09EnfileExcC1Ev
libIex-3_0.so.29:_ZN7Iex_3_09EnfileExcC2EONSt7__cxx1112basic_stringIcSt11char_traitsIcESaIcEEE
libIex-3_0.so.29:_ZN7Iex_3_09EnfileExcC2EOS0_
libIex-3_0.so.29:_ZN7Iex_3_09EnfileExcC2EPKc
libIex-3_0.so.29:_ZN7Iex_3_09EnfileExcC2ERKNSt7__cxx1112basic_stringIcSt11char_traitsIcESaIcEEE
libIex-3_0.so.29:_ZN7Iex_3_09EnfileExcC2ERKS0_
libIex-3_0.so.29:_ZN7Iex_3_09EnfileExcC2ERNSt7__cxx1118basic_stringstreamIcSt11char_traitsIcESaIcEEE
libIex-3_0.so.29:_ZN7Iex_3_09EnfileExcC2Ev
libIex-3_0.so.29:_ZN7Iex_3_09EnfileExcD0Ev
libIex-3_0.so.29:_ZN7Iex_3_09EnfileExcD1Ev
libIex-3_0.so.29:_ZN7Iex_3_09EnfileExcD2Ev
libIex-3_0.so.29:_ZN7Iex_3_09EnfileExcaSEOS0_
libIex-3_0.so.29:_ZN7Iex_3_09EnfileExcaSERS0_
libIex-3_0.so.29:_ZN7Iex_3_09EnoanoExcC1EONSt7__cxx1112basic_stringIcSt11char_traitsIcESaIcEEE
libIex-3_0.so.29:_ZN7Iex_3_09EnoanoExcC1EOS0_
libIex-3_0.so.29:_ZN7Iex_3_09EnoanoExcC1EPKc
libIex-3_0.so.29:_ZN7Iex_3_09EnoanoExcC1ERKNSt7__cxx1112basic_stringIcSt11char_traitsIcESaIcEEE
libIex-3_0.so.29:_ZN7Iex_3_09EnoanoExcC1ERKS0_
libIex-3_0.so.29:_ZN7Iex_3_09EnoanoExcC1ERNSt7__cxx1118basic_stringstreamIcSt11char_traitsIcESaIcEEE
libIex-3_0.so.29:_ZN7Iex_3_09EnoanoExcC1Ev
libIex-3_0.so.29:_ZN7Iex_3_09EnoanoExcC2EONSt7__cxx1112basic_stringIcSt11char_traitsIcESaIcEEE
libIex-3_0.so.29:_ZN7Iex_3_09EnoanoExcC2EOS0_
libIex-3_0.so.29:_ZN7Iex_3_09EnoanoExcC2EPKc
libIex-3_0.so.29:_ZN7Iex_3_09EnoanoExcC2ERKNSt7__cxx1112basic_stringIcSt11char_traitsIcESaIcEEE
libIex-3_0.so.29:_ZN7Iex_3_09EnoanoExcC2ERKS0_
libIex-3_0.so.29:_ZN7Iex_3_09EnoanoExcC2ERNSt7__cxx1118basic_stringstreamIcSt11char_traitsIcESaIcEEE
libIex-3_0.so.29:_ZN7Iex_3_09EnoanoExcC2Ev
libIex-3_0.so.29:_ZN7Iex_3_09EnoanoExcD0Ev
libIex-3_0.so.29:_ZN7Iex_3_09EnoanoExcD1Ev
libIex-3_0.so.29:_ZN7Iex_3_09EnoanoExcD2Ev
libIex-3_0.so.29:_ZN7Iex_3_09EnoanoExcaSEOS0_
libIex-3_0.so.29:_ZN7Iex_3_09EnoanoExcaSERS0_
libIex-3_0.so.29:_ZN7Iex_3_09EnocsiExcC1EONSt7__cxx1112basic_stringIcSt11char_traitsIcESaIcEEE
libIex-3_0.so.29:_ZN7Iex_3_09EnocsiExcC1EOS0_
libIex-3_0.so.29:_ZN7Iex_3_09EnocsiExcC1EPKc
libIex-3_0.so.29:_ZN7Iex_3_09EnocsiExcC1ERKNSt7__cxx1112basic_stringIcSt11char_traitsIcESaIcEEE
libIex-3_0.so.29:_ZN7Iex_3_09EnocsiExcC1ERKS0_
libIex-3_0.so.29:_ZN7Iex_3_09EnocsiExcC1ERNSt7__cxx1118basic_stringstreamIcSt11char_traitsIcESaIcEEE
libIex-3_0.so.29:_ZN7Iex_3_09EnocsiExcC1Ev
libIex-3_0.so.29:_ZN7Iex_3_09EnocsiExcC2EONSt7__cxx1112basic_stringIcSt11char_traitsIcESaIcEEE
libIex-3_0.so.29:_ZN7Iex_3_09EnocsiExcC2EOS0_
libIex-3_0.so.29:_ZN7Iex_3_09EnocsiExcC2EPKc
libIex-3_0.so.29:_ZN7Iex_3_09EnocsiExcC2ERKNSt7__cxx1112basic_stringIcSt11char_traitsIcESaIcEEE
libIex-3_0.so.29:_ZN7Iex_3_09EnocsiExcC2ERKS0_
libIex-3_0.so.29:_ZN7Iex_3_09EnocsiExcC2ERNSt7__cxx1118basic_stringstreamIcSt11char_traitsIcESaIcEEE
libIex-3_0.so.29:_ZN7Iex_3_09EnocsiExcC2Ev
libIex-3_0.so.29:_ZN7Iex_3_09EnocsiExcD0Ev
libIex-3_0.so.29:_ZN7Iex_3_09EnocsiExcD1Ev
libIex-3_0.so.29:_ZN7Iex_3_09EnocsiExcD2Ev
libIex-3_0.so.29:_ZN7Iex_3_09EnocsiExcaSEOS0_
libIex-3_0.so.29:_ZN7Iex_3_09EnocsiExcaSERS0_
libIex-3_0.so.29:_ZN7Iex_3_09EnodevExcC1EONSt7__cxx1112basic_stringIcSt11char_traitsIcESaIcEEE
libIex-3_0.so.29:_ZN7Iex_3_09EnodevExcC1EOS0_
libIex-3_0.so.29:_ZN7Iex_3_09EnodevExcC1EPKc
libIex-3_0.so.29:_ZN7Iex_3_09EnodevExcC1ERKNSt7__cxx1112basic_stringIcSt11char_traitsIcESaIcEEE
libIex-3_0.so.29:_ZN7Iex_3_09EnodevExcC1ERKS0_
libIex-3_0.so.29:_ZN7Iex_3_09EnodevExcC1ERNSt7__cxx1118basic_stringstreamIcSt11char_traitsIcESaIcEEE
libIex-3_0.so.29:_ZN7Iex_3_09EnodevExcC1Ev
libIex-3_0.so.29:_ZN7Iex_3_09EnodevExcC2EONSt7__cxx1112basic_stringIcSt11char_traitsIcESaIcEEE
libIex-3_0.so.29:_ZN7Iex_3_09EnodevExcC2EOS0_
libIex-3_0.so.29:_ZN7Iex_3_09EnodevExcC2EPKc
libIex-3_0.so.29:_ZN7Iex_3_09EnodevExcC2ERKNSt7__cxx1112basic_stringIcSt11char_traitsIcESaIcEEE
libIex-3_0.so.29:_ZN7Iex_3_09EnodevExcC2ERKS0_
libIex-3_0.so.29:_ZN7Iex_3_09EnodevExcC2ERNSt7__cxx1118basic_stringstreamIcSt11char_traitsIcESaIcEEE
libIex-3_0.so.29:_ZN7Iex_3_09EnodevExcC2Ev
libIex-3_0.so.29:_ZN7Iex_3_09EnodevExcD0Ev
libIex-3_0.so.29:_ZN7Iex_3_09EnodevExcD1Ev
libIex-3_0.so.29:_ZN7Iex_3_09EnodevExcD2Ev
libIex-3_0.so.29:_ZN7Iex_3_09EnodevExcaSEOS0_
libIex-3_0.so.29:_ZN7Iex_3_09EnodevExcaSERS0_
libIex-3_0.so.29:_ZN7Iex_3_09EnoentExcC1EONSt7__cxx1112basic_stringIcSt11char_traitsIcESaIcEEE
libIex-3_0.so.29:_ZN7Iex_3_09EnoentExcC1EOS0_
libIex-3_0.so.29:_ZN7Iex_3_09EnoentExcC1EPKc
libIex-3_0.so.29:_ZN7Iex_3_09EnoentExcC1ERKNSt7__cxx1112basic_stringIcSt11char_traitsIcESaIcEEE
libIex-3_0.so.29:_ZN7Iex_3_09EnoentExcC1ERKS0_
libIex-3_0.so.29:_ZN7Iex_3_09EnoentExcC1ERNSt7__cxx1118basic_stringstreamIcSt11char_traitsIcESaIcEEE
libIex-3_0.so.29:_ZN7Iex_3_09EnoentExcC1Ev
libIex-3_0.so.29:_ZN7Iex_3_09EnoentExcC2EONSt7__cxx1112basic_stringIcSt11char_traitsIcESaIcEEE
libIex-3_0.so.29:_ZN7Iex_3_09EnoentExcC2EOS0_
libIex-3_0.so.29:_ZN7Iex_3_09EnoentExcC2EPKc
libIex-3_0.so.29:_ZN7Iex_3_09EnoentExcC2ERKNSt7__cxx1112basic_stringIcSt11char_traitsIcESaIcEEE
libIex-3_0.so.29:_ZN7Iex_3_09EnoentExcC2ERKS0_
libIex-3_0.so.29:_ZN7Iex_3_09EnoentExcC2ERNSt7__cxx1118basic_stringstreamIcSt11char_traitsIcESaIcEEE
libIex-3_0.so.29:_ZN7Iex_3_09EnoentExcC2Ev
libIex-3_0.so.29:_ZN7Iex_3_09EnoentExcD0Ev
libIex-3_0.so.29:_ZN7Iex_3_09EnoentExcD1Ev
libIex-3_0.so.29:_ZN7Iex_3_09EnoentExcD2Ev
libIex-3_0.so.29:_ZN7Iex_3_09EnoentExcaSEOS0_
libIex-3_0.so.29:_ZN7Iex_3_09EnoentExcaSERS0_
libIex-3_0.so.29:_ZN7Iex_3_09EnolckExcC1EONSt7__cxx1112basic_stringIcSt11char_traitsIcESaIcEEE
libIex-3_0.so.29:_ZN7Iex_3_09EnolckExcC1EOS0_
libIex-3_0.so.29:_ZN7Iex_3_09EnolckExcC1EPKc
libIex-3_0.so.29:_ZN7Iex_3_09EnolckExcC1ERKNSt7__cxx1112basic_stringIcSt11char_traitsIcESaIcEEE
libIex-3_0.so.29:_ZN7Iex_3_09EnolckExcC1ERKS0_
libIex-3_0.so.29:_ZN7Iex_3_09EnolckExcC1ERNSt7__cxx1118basic_stringstreamIcSt11char_traitsIcESaIcEEE
libIex-3_0.so.29:_ZN7Iex_3_09EnolckExcC1Ev
libIex-3_0.so.29:_ZN7Iex_3_09EnolckExcC2EONSt7__cxx1112basic_stringIcSt11char_traitsIcESaIcEEE
libIex-3_0.so.29:_ZN7Iex_3_09EnolckExcC2EOS0_
libIex-3_0.so.29:_ZN7Iex_3_09EnolckExcC2EPKc
libIex-3_0.so.29:_ZN7Iex_3_09EnolckExcC2ERKNSt7__cxx1112basic_stringIcSt11char_traitsIcESaIcEEE
libIex-3_0.so.29:_ZN7Iex_3_09EnolckExcC2ERKS0_
libIex-3_0.so.29:_ZN7Iex_3_09EnolckExcC2ERNSt7__cxx1118basic_stringstreamIcSt11char_traitsIcESaIcEEE
libIex-3_0.so.29:_ZN7Iex_3_09EnolckExcC2Ev
libIex-3_0.so.29:_ZN7Iex_3_09EnolckExcD0Ev
libIex-3_0.so.29:_ZN7Iex_3_09EnolckExcD1Ev
libIex-3_0.so.29:_ZN7Iex_3_09EnolckExcD2Ev
libIex-3_0.so.29:_ZN7Iex_3_09EnolckExcaSEOS0_
libIex-3_0.so.29:_ZN7Iex_3_09EnolckExcaSERS0_
libIex-3_0.so.29:_ZN7Iex_3_09EnomemExcC1EONSt7__cxx1112basic_stringIcSt11char_traitsIcESaIcEEE
libIex-3_0.so.29:_ZN7Iex_3_09EnomemExcC1EOS0_
libIex-3_0.so.29:_ZN7Iex_3_09EnomemExcC1EPKc
libIex-3_0.so.29:_ZN7Iex_3_09EnomemExcC1ERKNSt7__cxx1112basic_stringIcSt11char_traitsIcESaIcEEE
libIex-3_0.so.29:_ZN7Iex_3_09EnomemExcC1ERKS0_
libIex-3_0.so.29:_ZN7Iex_3_09EnomemExcC1ERNSt7__cxx1118basic_stringstreamIcSt11char_traitsIcESaIcEEE
libIex-3_0.so.29:_ZN7Iex_3_09EnomemExcC1Ev
libIex-3_0.so.29:_ZN7Iex_3_09EnomemExcC2EONSt7__cxx1112basic_stringIcSt11char_traitsIcESaIcEEE
libIex-3_0.so.29:_ZN7Iex_3_09EnomemExcC2EOS0_
libIex-3_0.so.29:_ZN7Iex_3_09EnomemExcC2EPKc
libIex-3_0.so.29:_ZN7Iex_3_09EnomemExcC2ERKNSt7__cxx1112basic_stringIcSt11char_traitsIcESaIcEEE
libIex-3_0.so.29:_ZN7Iex_3_09EnomemExcC2ERKS0_
libIex-3_0.so.29:_ZN7Iex_3_09EnomemExcC2ERNSt7__cxx1118basic_stringstreamIcSt11char_traitsIcESaIcEEE
libIex-3_0.so.29:_ZN7Iex_3_09EnomemExcC2Ev
libIex-3_0.so.29:_ZN7Iex_3_09EnomemExcD0Ev
libIex-3_0.so.29:_ZN7Iex_3_09EnomemExcD1Ev
libIex-3_0.so.29:_ZN7Iex_3_09EnomemExcD2Ev
libIex-3_0.so.29:_ZN7Iex_3_09EnomemExcaSEOS0_
libIex-3_0.so.29:_ZN7Iex_3_09EnomemExcaSERS0_
libIex-3_0.so.29:_ZN7Iex_3_09EnomsgExcC1EONSt7__cxx1112basic_stringIcSt11char_traitsIcESaIcEEE
libIex-3_0.so.29:_ZN7Iex_3_09EnomsgExcC1EOS0_
libIex-3_0.so.29:_ZN7Iex_3_09EnomsgExcC1EPKc
libIex-3_0.so.29:_ZN7Iex_3_09EnomsgExcC1ERKNSt7__cxx1112basic_stringIcSt11char_traitsIcESaIcEEE
libIex-3_0.so.29:_ZN7Iex_3_09EnomsgExcC1ERKS0_
libIex-3_0.so.29:_ZN7Iex_3_09EnomsgExcC1ERNSt7__cxx1118basic_stringstreamIcSt11char_traitsIcESaIcEEE
libIex-3_0.so.29:_ZN7Iex_3_09EnomsgExcC1Ev
libIex-3_0.so.29:_ZN7Iex_3_09EnomsgExcC2EONSt7__cxx1112basic_stringIcSt11char_traitsIcESaIcEEE
libIex-3_0.so.29:_ZN7Iex_3_09EnomsgExcC2EOS0_
libIex-3_0.so.29:_ZN7Iex_3_09EnomsgExcC2EPKc
libIex-3_0.so.29:_ZN7Iex_3_09EnomsgExcC2ERKNSt7__cxx1112basic_stringIcSt11char_traitsIcESaIcEEE
libIex-3_0.so.29:_ZN7Iex_3_09EnomsgExcC2ERKS0_
libIex-3_0.so.29:_ZN7Iex_3_09EnomsgExcC2ERNSt7__cxx1118basic_stringstreamIcSt11char_traitsIcESaIcEEE
libIex-3_0.so.29:_ZN7Iex_3_09EnomsgExcC2Ev
libIex-3_0.so.29:_ZN7Iex_3_09EnomsgExcD0Ev
libIex-3_0.so.29:_ZN7Iex_3_09EnomsgExcD1Ev
libIex-3_0.so.29:_ZN7Iex_3_09EnomsgExcD2Ev
libIex-3_0.so.29:_ZN7Iex_3_09EnomsgExcaSEOS0_
libIex-3_0.so.29:_ZN7Iex_3_09EnomsgExcaSERS0_
libIex-3_0.so.29:_ZN7Iex_3_09EnonetExcC1EONSt7__cxx1112basic_stringIcSt11char_traitsIcESaIcEEE
libIex-3_0.so.29:_ZN7Iex_3_09EnonetExcC1EOS0_
libIex-3_0.so.29:_ZN7Iex_3_09EnonetExcC1EPKc
libIex-3_0.so.29:_ZN7Iex_3_09EnonetExcC1ERKNSt7__cxx1112basic_stringIcSt11char_traitsIcESaIcEEE
libIex-3_0.so.29:_ZN7Iex_3_09EnonetExcC1ERKS0_
libIex-3_0.so.29:_ZN7Iex_3_09EnonetExcC1ERNSt7__cxx1118basic_stringstreamIcSt11char_traitsIcESaIcEEE
libIex-3_0.so.29:_ZN7Iex_3_09EnonetExcC1Ev
libIex-3_0.so.29:_ZN7Iex_3_09EnonetExcC2EONSt7__cxx1112basic_stringIcSt11char_traitsIcESaIcEEE
libIex-3_0.so.29:_ZN7Iex_3_09EnonetExcC2EOS0_
libIex-3_0.so.29:_ZN7Iex_3_09EnonetExcC2EPKc
libIex-3_0.so.29:_ZN7Iex_3_09EnonetExcC2ERKNSt7__cxx1112basic_stringIcSt11char_traitsIcESaIcEEE
libIex-3_0.so.29:_ZN7Iex_3_09EnonetExcC2ERKS0_
libIex-3_0.so.29:_ZN7Iex_3_09EnonetExcC2ERNSt7__cxx1118basic_stringstreamIcSt11char_traitsIcESaIcEEE
libIex-3_0.so.29:_ZN7Iex_3_09EnonetExcC2Ev
libIex-3_0.so.29:_ZN7Iex_3_09EnonetExcD0Ev
libIex-3_0.so.29:_ZN7Iex_3_09EnonetExcD1Ev
libIex-3_0.so.29:_ZN7Iex_3_09EnonetExcD2Ev
libIex-3_0.so.29:_ZN7Iex_3_09EnonetExcaSEOS0_
libIex-3_0.so.29:_ZN7Iex_3_09EnonetExcaSERS0_
libIex-3_0.so.29:_ZN7Iex_3_09EnopkgExcC1EONSt7__cxx1112basic_stringIcSt11char_traitsIcESaIcEEE
libIex-3_0.so.29:_ZN7Iex_3_09EnopkgExcC1EOS0_
libIex-3_0.so.29:_ZN7Iex_3_09EnopkgExcC1EPKc
libIex-3_0.so.29:_ZN7Iex_3_09EnopkgExcC1ERKNSt7__cxx1112basic_stringIcSt11char_traitsIcESaIcEEE
libIex-3_0.so.29:_ZN7Iex_3_09EnopkgExcC1ERKS0_
libIex-3_0.so.29:_ZN7Iex_3_09EnopkgExcC1ERNSt7__cxx1118basic_stringstreamIcSt11char_traitsIcESaIcEEE
libIex-3_0.so.29:_ZN7Iex_3_09EnopkgExcC1Ev
libIex-3_0.so.29:_ZN7Iex_3_09EnopkgExcC2EONSt7__cxx1112basic_stringIcSt11char_traitsIcESaIcEEE
libIex-3_0.so.29:_ZN7Iex_3_09EnopkgExcC2EOS0_
libIex-3_0.so.29:_ZN7Iex_3_09EnopkgExcC2EPKc
libIex-3_0.so.29:_ZN7Iex_3_09EnopkgExcC2ERKNSt7__cxx1112basic_stringIcSt11char_traitsIcESaIcEEE
libIex-3_0.so.29:_ZN7Iex_3_09EnopkgExcC2ERKS0_
libIex-3_0.so.29:_ZN7Iex_3_09EnopkgExcC2ERNSt7__cxx1118basic_stringstreamIcSt11char_traitsIcESaIcEEE
libIex-3_0.so.29:_ZN7Iex_3_09EnopkgExcC2Ev
libIex-3_0.so.29:_ZN7Iex_3_09EnopkgExcD0Ev
libIex-3_0.so.29:_ZN7Iex_3_09EnopkgExcD1Ev
libIex-3_0.so.29:_ZN7Iex_3_09EnopkgExcD2Ev
libIex-3_0.so.29:_ZN7Iex_3_09EnopkgExcaSEOS0_
libIex-3_0.so.29:_ZN7Iex_3_09EnopkgExcaSERS0_
libIex-3_0.so.29:_ZN7Iex_3_09EnospcExcC1EONSt7__cxx1112basic_stringIcSt11char_traitsIcESaIcEEE
libIex-3_0.so.29:_ZN7Iex_3_09EnospcExcC1EOS0_
libIex-3_0.so.29:_ZN7Iex_3_09EnospcExcC1EPKc
libIex-3_0.so.29:_ZN7Iex_3_09EnospcExcC1ERKNSt7__cxx1112basic_stringIcSt11char_traitsIcESaIcEEE
libIex-3_0.so.29:_ZN7Iex_3_09EnospcExcC1ERKS0_
libIex-3_0.so.29:_ZN7Iex_3_09EnospcExcC1ERNSt7__cxx1118basic_stringstreamIcSt11char_traitsIcESaIcEEE
libIex-3_0.so.29:_ZN7Iex_3_09EnospcExcC1Ev
libIex-3_0.so.29:_ZN7Iex_3_09EnospcExcC2EONSt7__cxx1112basic_stringIcSt11char_traitsIcESaIcEEE
libIex-3_0.so.29:_ZN7Iex_3_09EnospcExcC2EOS0_
libIex-3_0.so.29:_ZN7Iex_3_09EnospcExcC2EPKc
libIex-3_0.so.29:_ZN7Iex_3_09EnospcExcC2ERKNSt7__cxx1112basic_stringIcSt11char_traitsIcESaIcEEE
libIex-3_0.so.29:_ZN7Iex_3_09EnospcExcC2ERKS0_
libIex-3_0.so.29:_ZN7Iex_3_09EnospcExcC2ERNSt7__cxx1118basic_stringstreamIcSt11char_traitsIcESaIcEEE
libIex-3_0.so.29:_ZN7Iex_3_09EnospcExcC2Ev
libIex-3_0.so.29:_ZN7Iex_3_09EnospcExcD0Ev
libIex-3_0.so.29:_ZN7Iex_3_09EnospcExcD1Ev
libIex-3_0.so.29:_ZN7Iex_3_09EnospcExcD2Ev
libIex-3_0.so.29:_ZN7Iex_3_09EnospcExcaSEOS0_
libIex-3_0.so.29:_ZN7Iex_3_09EnospcExcaSERS0_
libIex-3_0.so.29:_ZN7Iex_3_09EnostrExcC1EONSt7__cxx1112basic_stringIcSt11char_traitsIcESaIcEEE
libIex-3_0.so.29:_ZN7Iex_3_09EnostrExcC1EOS0_
libIex-3_0.so.29:_ZN7Iex_3_09EnostrExcC1EPKc
libIex-3_0.so.29:_ZN7Iex_3_09EnostrExcC1ERKNSt7__cxx1112basic_stringIcSt11char_traitsIcESaIcEEE
libIex-3_0.so.29:_ZN7Iex_3_09EnostrExcC1ERKS0_
libIex-3_0.so.29:_ZN7Iex_3_09EnostrExcC1ERNSt7__cxx1118basic_stringstreamIcSt11char_traitsIcESaIcEEE
libIex-3_0.so.29:_ZN7Iex_3_09EnostrExcC1Ev
libIex-3_0.so.29:_ZN7Iex_3_09EnostrExcC2EONSt7__cxx1112basic_stringIcSt11char_traitsIcESaIcEEE
libIex-3_0.so.29:_ZN7Iex_3_09EnostrExcC2EOS0_
libIex-3_0.so.29:_ZN7Iex_3_09EnostrExcC2EPKc
libIex-3_0.so.29:_ZN7Iex_3_09EnostrExcC2ERKNSt7__cxx1112basic_stringIcSt11char_traitsIcESaIcEEE
libIex-3_0.so.29:_ZN7Iex_3_09EnostrExcC2ERKS0_
libIex-3_0.so.29:_ZN7Iex_3_09EnostrExcC2ERNSt7__cxx1118basic_stringstreamIcSt11char_traitsIcESaIcEEE
libIex-3_0.so.29:_ZN7Iex_3_09EnostrExcC2Ev
libIex-3_0.so.29:_ZN7Iex_3_09EnostrExcD0Ev
libIex-3_0.so.29:_ZN7Iex_3_09EnostrExcD1Ev
libIex-3_0.so.29:_ZN7Iex_3_09EnostrExcD2Ev
libIex-3_0.so.29:_ZN7Iex_3_09EnostrExcaSEOS0_
libIex-3_0.so.29:_ZN7Iex_3_09EnostrExcaSERS0_
libIex-3_0.so.29:_ZN7Iex_3_09EnosysExcC1EONSt7__cxx1112basic_stringIcSt11char_traitsIcESaIcEEE
libIex-3_0.so.29:_ZN7Iex_3_09EnosysExcC1EOS0_
libIex-3_0.so.29:_ZN7Iex_3_09EnosysExcC1EPKc
libIex-3_0.so.29:_ZN7Iex_3_09EnosysExcC1ERKNSt7__cxx1112basic_stringIcSt11char_traitsIcESaIcEEE
libIex-3_0.so.29:_ZN7Iex_3_09EnosysExcC1ERKS0_
libIex-3_0.so.29:_ZN7Iex_3_09EnosysExcC1ERNSt7__cxx1118basic_stringstreamIcSt11char_traitsIcESaIcEEE
libIex-3_0.so.29:_ZN7Iex_3_09EnosysExcC1Ev
libIex-3_0.so.29:_ZN7Iex_3_09EnosysExcC2EONSt7__cxx1112basic_stringIcSt11char_traitsIcESaIcEEE
libIex-3_0.so.29:_ZN7Iex_3_09EnosysExcC2EOS0_
libIex-3_0.so.29:_ZN7Iex_3_09EnosysExcC2EPKc
libIex-3_0.so.29:_ZN7Iex_3_09EnosysExcC2ERKNSt7__cxx1112basic_stringIcSt11char_traitsIcESaIcEEE
libIex-3_0.so.29:_ZN7Iex_3_09EnosysExcC2ERKS0_
libIex-3_0.so.29:_ZN7Iex_3_09EnosysExcC2ERNSt7__cxx1118basic_stringstreamIcSt11char_traitsIcESaIcEEE
libIex-3_0.so.29:_ZN7Iex_3_09EnosysExcC2Ev
libIex-3_0.so.29:_ZN7Iex_3_09EnosysExcD0Ev
libIex-3_0.so.29:_ZN7Iex_3_09EnosysExcD1Ev
libIex-3_0.so.29:_ZN7Iex_3_09EnosysExcD2Ev
libIex-3_0.so.29:_ZN7Iex_3_09EnosysExcaSEOS0_
libIex-3_0.so.29:_ZN7Iex_3_09EnosysExcaSERS0_
libIex-3_0.so.29:_ZN7Iex_3_09EnottyExcC1EONSt7__cxx1112basic_stringIcSt11char_traitsIcESaIcEEE
libIex-3_0.so.29:_ZN7Iex_3_09EnottyExcC1EOS0_
libIex-3_0.so.29:_ZN7Iex_3_09EnottyExcC1EPKc
libIex-3_0.so.29:_ZN7Iex_3_09EnottyExcC1ERKNSt7__cxx1112basic_stringIcSt11char_traitsIcESaIcEEE
libIex-3_0.so.29:_ZN7Iex_3_09EnottyExcC1ERKS0_
libIex-3_0.so.29:_ZN7Iex_3_09EnottyExcC1ERNSt7__cxx1118basic_stringstreamIcSt11char_traitsIcESaIcEEE
libIex-3_0.so.29:_ZN7Iex_3_09EnottyExcC1Ev
libIex-3_0.so.29:_ZN7Iex_3_09EnottyExcC2EONSt7__cxx1112basic_stringIcSt11char_traitsIcESaIcEEE
libIex-3_0.so.29:_ZN7Iex_3_09EnottyExcC2EOS0_
libIex-3_0.so.29:_ZN7Iex_3_09EnottyExcC2EPKc
libIex-3_0.so.29:_ZN7Iex_3_09EnottyExcC2ERKNSt7__cxx1112basic_stringIcSt11char_traitsIcESaIcEEE
libIex-3_0.so.29:_ZN7Iex_3_09EnottyExcC2ERKS0_
libIex-3_0.so.29:_ZN7Iex_3_09EnottyExcC2ERNSt7__cxx1118basic_stringstreamIcSt11char_traitsIcESaIcEEE
libIex-3_0.so.29:_ZN7Iex_3_09EnottyExcC2Ev
libIex-3_0.so.29:_ZN7Iex_3_09EnottyExcD0Ev
libIex-3_0.so.29:_ZN7Iex_3_09EnottyExcD1Ev
libIex-3_0.so.29:_ZN7Iex_3_09EnottyExcD2Ev
libIex-3_0.so.29:_ZN7Iex_3_09EnottyExcaSEOS0_
libIex-3_0.so.29:_ZN7Iex_3_09EnottyExcaSERS0_
libIex-3_0.so.29:_ZN7Iex_3_09EprotoExcC1EONSt7__cxx1112basic_stringIcSt11char_traitsIcESaIcEEE
libIex-3_0.so.29:_ZN7Iex_3_09EprotoExcC1EOS0_
libIex-3_0.so.29:_ZN7Iex_3_09EprotoExcC1EPKc
libIex-3_0.so.29:_ZN7Iex_3_09EprotoExcC1ERKNSt7__cxx1112basic_stringIcSt11char_traitsIcESaIcEEE
libIex-3_0.so.29:_ZN7Iex_3_09EprotoExcC1ERKS0_
libIex-3_0.so.29:_ZN7Iex_3_09EprotoExcC1ERNSt7__cxx1118basic_stringstreamIcSt11char_traitsIcESaIcEEE
libIex-3_0.so.29:_ZN7Iex_3_09EprotoExcC1Ev
libIex-3_0.so.29:_ZN7Iex_3_09EprotoExcC2EONSt7__cxx1112basic_stringIcSt11char_traitsIcESaIcEEE
libIex-3_0.so.29:_ZN7Iex_3_09EprotoExcC2EOS0_
libIex-3_0.so.29:_ZN7Iex_3_09EprotoExcC2EPKc
libIex-3_0.so.29:_ZN7Iex_3_09EprotoExcC2ERKNSt7__cxx1112basic_stringIcSt11char_traitsIcESaIcEEE
libIex-3_0.so.29:_ZN7Iex_3_09EprotoExcC2ERKS0_
libIex-3_0.so.29:_ZN7Iex_3_09EprotoExcC2ERNSt7__cxx1118basic_stringstreamIcSt11char_traitsIcESaIcEEE
libIex-3_0.so.29:_ZN7Iex_3_09EprotoExcC2Ev
libIex-3_0.so.29:_ZN7Iex_3_09EprotoExcD0Ev
libIex-3_0.so.29:_ZN7Iex_3_09EprotoExcD1Ev
libIex-3_0.so.29:_ZN7Iex_3_09EprotoExcD2Ev
libIex-3_0.so.29:_ZN7Iex_3_09EprotoExcaSEOS0_
libIex-3_0.so.29:_ZN7Iex_3_09EprotoExcaSERS0_
libIex-3_0.so.29:_ZN7Iex_3_09ErangeExcC1EONSt7__cxx1112basic_stringIcSt11char_traitsIcESaIcEEE
libIex-3_0.so.29:_ZN7Iex_3_09ErangeExcC1EOS0_
libIex-3_0.so.29:_ZN7Iex_3_09ErangeExcC1EPKc
libIex-3_0.so.29:_ZN7Iex_3_09ErangeExcC1ERKNSt7__cxx1112basic_stringIcSt11char_traitsIcESaIcEEE
libIex-3_0.so.29:_ZN7Iex_3_09ErangeExcC1ERKS0_
libIex-3_0.so.29:_ZN7Iex_3_09ErangeExcC1ERNSt7__cxx1118basic_stringstreamIcSt11char_traitsIcESaIcEEE
libIex-3_0.so.29:_ZN7Iex_3_09ErangeExcC1Ev
libIex-3_0.so.29:_ZN7Iex_3_09ErangeExcC2EONSt7__cxx1112basic_stringIcSt11char_traitsIcESaIcEEE
libIex-3_0.so.29:_ZN7Iex_3_09ErangeExcC2EOS0_
libIex-3_0.so.29:_ZN7Iex_3_09ErangeExcC2EPKc
libIex-3_0.so.29:_ZN7Iex_3_09ErangeExcC2ERKNSt7__cxx1112basic_stringIcSt11char_traitsIcESaIcEEE
libIex-3_0.so.29:_ZN7Iex_3_09ErangeExcC2ERKS0_
libIex-3_0.so.29:_ZN7Iex_3_09ErangeExcC2ERNSt7__cxx1118basic_stringstreamIcSt11char_traitsIcESaIcEEE
libIex-3_0.so.29:_ZN7Iex_3_09ErangeExcC2Ev
libIex-3_0.so.29:_ZN7Iex_3_09ErangeExcD0Ev
libIex-3_0.so.29:_ZN7Iex_3_09ErangeExcD1Ev
libIex-3_0.so.29:_ZN7Iex_3_09ErangeExcD2Ev
libIex-3_0.so.29:_ZN7Iex_3_09ErangeExcaSEOS0_
libIex-3_0.so.29:_ZN7Iex_3_09ErangeExcaSERS0_
libIex-3_0.so.29:_ZN7Iex_3_09EspipeExcC1EONSt7__cxx1112basic_stringIcSt11char_traitsIcESaIcEEE
libIex-3_0.so.29:_ZN7Iex_3_09EspipeExcC1EOS0_
libIex-3_0.so.29:_ZN7Iex_3_09EspipeExcC1EPKc
libIex-3_0.so.29:_ZN7Iex_3_09EspipeExcC1ERKNSt7__cxx1112basic_stringIcSt11char_traitsIcESaIcEEE
libIex-3_0.so.29:_ZN7Iex_3_09EspipeExcC1ERKS0_
libIex-3_0.so.29:_ZN7Iex_3_09EspipeExcC1ERNSt7__cxx1118basic_stringstreamIcSt11char_traitsIcESaIcEEE
libIex-3_0.so.29:_ZN7Iex_3_09EspipeExcC1Ev
libIex-3_0.so.29:_ZN7Iex_3_09EspipeExcC2EONSt7__cxx1112basic_stringIcSt11char_traitsIcESaIcEEE
libIex-3_0.so.29:_ZN7Iex_3_09EspipeExcC2EOS0_
libIex-3_0.so.29:_ZN7Iex_3_09EspipeExcC2EPKc
libIex-3_0.so.29:_ZN7Iex_3_09EspipeExcC2ERKNSt7__cxx1112basic_stringIcSt11char_traitsIcESaIcEEE
libIex-3_0.so.29:_ZN7Iex_3_09EspipeExcC2ERKS0_
libIex-3_0.so.29:_ZN7Iex_3_09EspipeExcC2ERNSt7__cxx1118basic_stringstreamIcSt11char_traitsIcESaIcEEE
libIex-3_0.so.29:_ZN7Iex_3_09EspipeExcC2Ev
libIex-3_0.so.29:_ZN7Iex_3_09EspipeExcD0Ev
libIex-3_0.so.29:_ZN7Iex_3_09EspipeExcD1Ev
libIex-3_0.so.29:_ZN7Iex_3_09EspipeExcD2Ev
libIex-3_0.so.29:_ZN7Iex_3_09EspipeExcaSEOS0_
libIex-3_0.so.29:_ZN7Iex_3_09EspipeExcaSERS0_
libIex-3_0.so.29:_ZN7Iex_3_09EsrmntExcC1EONSt7__cxx1112basic_stringIcSt11char_traitsIcESaIcEEE
libIex-3_0.so.29:_ZN7Iex_3_09EsrmntExcC1EOS0_
libIex-3_0.so.29:_ZN7Iex_3_09EsrmntExcC1EPKc
libIex-3_0.so.29:_ZN7Iex_3_09EsrmntExcC1ERKNSt7__cxx1112basic_stringIcSt11char_traitsIcESaIcEEE
libIex-3_0.so.29:_ZN7Iex_3_09EsrmntExcC1ERKS0_
libIex-3_0.so.29:_ZN7Iex_3_09EsrmntExcC1ERNSt7__cxx1118basic_stringstreamIcSt11char_traitsIcESaIcEEE
libIex-3_0.so.29:_ZN7Iex_3_09EsrmntExcC1Ev
libIex-3_0.so.29:_ZN7Iex_3_09EsrmntExcC2EONSt7__cxx1112basic_stringIcSt11char_traitsIcESaIcEEE
libIex-3_0.so.29:_ZN7Iex_3_09EsrmntExcC2EOS0_
libIex-3_0.so.29:_ZN7Iex_3_09EsrmntExcC2EPKc
libIex-3_0.so.29:_ZN7Iex_3_09EsrmntExcC2ERKNSt7__cxx1112basic_stringIcSt11char_traitsIcESaIcEEE
libIex-3_0.so.29:_ZN7Iex_3_09EsrmntExcC2ERKS0_
libIex-3_0.so.29:_ZN7Iex_3_09EsrmntExcC2ERNSt7__cxx1118basic_stringstreamIcSt11char_traitsIcESaIcEEE
libIex-3_0.so.29:_ZN7Iex_3_09EsrmntExcC2Ev
libIex-3_0.so.29:_ZN7Iex_3_09EsrmntExcD0Ev
libIex-3_0.so.29:_ZN7Iex_3_09EsrmntExcD1Ev
libIex-3_0.so.29:_ZN7Iex_3_09EsrmntExcD2Ev
libIex-3_0.so.29:_ZN7Iex_3_09EsrmntExcaSEOS0_
libIex-3_0.so.29:_ZN7Iex_3_09EsrmntExcaSERS0_
libIex-3_0.so.29:_ZN7Iex_3_09EstaleExcC1EONSt7__cxx1112basic_stringIcSt11char_traitsIcESaIcEEE
libIex-3_0.so.29:_ZN7Iex_3_09EstaleExcC1EOS0_
libIex-3_0.so.29:_ZN7Iex_3_09EstaleExcC1EPKc
libIex-3_0.so.29:_ZN7Iex_3_09EstaleExcC1ERKNSt7__cxx1112basic_stringIcSt11char_traitsIcESaIcEEE
libIex-3_0.so.29:_ZN7Iex_3_09EstaleExcC1ERKS0_
libIex-3_0.so.29:_ZN7Iex_3_09EstaleExcC1ERNSt7__cxx1118basic_stringstreamIcSt11char_traitsIcESaIcEEE
libIex-3_0.so.29:_ZN7Iex_3_09EstaleExcC1Ev
libIex-3_0.so.29:_ZN7Iex_3_09EstaleExcC2EONSt7__cxx1112basic_stringIcSt11char_traitsIcESaIcEEE
libIex-3_0.so.29:_ZN7Iex_3_09EstaleExcC2EOS0_
libIex-3_0.so.29:_ZN7Iex_3_09EstaleExcC2EPKc
libIex-3_0.so.29:_ZN7Iex_3_09EstaleExcC2ERKNSt7__cxx1112basic_stringIcSt11char_traitsIcESaIcEEE
libIex-3_0.so.29:_ZN7Iex_3_09EstaleExcC2ERKS0_
libIex-3_0.so.29:_ZN7Iex_3_09EstaleExcC2ERNSt7__cxx1118basic_stringstreamIcSt11char_traitsIcESaIcEEE
libIex-3_0.so.29:_ZN7Iex_3_09EstaleExcC2Ev
libIex-3_0.so.29:_ZN7Iex_3_09EstaleExcD0Ev
libIex-3_0.so.29:_ZN7Iex_3_09EstaleExcD1Ev
libIex-3_0.so.29:_ZN7Iex_3_09EstaleExcD2Ev
libIex-3_0.so.29:_ZN7Iex_3_09EstaleExcaSEOS0_
libIex-3_0.so.29:_ZN7Iex_3_09EstaleExcaSERS0_
libIex-3_0.so.29:_ZN7Iex_3_09EusersExcC1EONSt7__cxx1112basic_stringIcSt11char_traitsIcESaIcEEE
libIex-3_0.so.29:_ZN7Iex_3_09EusersExcC1EOS0_
libIex-3_0.so.29:_ZN7Iex_3_09EusersExcC1EPKc
libIex-3_0.so.29:_ZN7Iex_3_09EusersExcC1ERKNSt7__cxx1112basic_stringIcSt11char_traitsIcESaIcEEE
libIex-3_0.so.29:_ZN7Iex_3_09EusersExcC1ERKS0_
libIex-3_0.so.29:_ZN7Iex_3_09EusersExcC1ERNSt7__cxx1118basic_stringstreamIcSt11char_traitsIcESaIcEEE
libIex-3_0.so.29:_ZN7Iex_3_09EusersExcC1Ev
libIex-3_0.so.29:_ZN7Iex_3_09EusersExcC2EONSt7__cxx1112basic_stringIcSt11char_traitsIcESaIcEEE
libIex-3_0.so.29:_ZN7Iex_3_09EusersExcC2EOS0_
libIex-3_0.so.29:_ZN7Iex_3_09EusersExcC2EPKc
libIex-3_0.so.29:_ZN7Iex_3_09EusersExcC2ERKNSt7__cxx1112basic_stringIcSt11char_traitsIcESaIcEEE
libIex-3_0.so.29:_ZN7Iex_3_09EusersExcC2ERKS0_
libIex-3_0.so.29:_ZN7Iex_3_09EusersExcC2ERNSt7__cxx1118basic_stringstreamIcSt11char_traitsIcESaIcEEE
libIex-3_0.so.29:_ZN7Iex_3_09EusersExcC2Ev
libIex-3_0.so.29:_ZN7Iex_3_09EusersExcD0Ev
libIex-3_0.so.29:_ZN7Iex_3_09EusersExcD1Ev
libIex-3_0.so.29:_ZN7Iex_3_09EusersExcD2Ev
libIex-3_0.so.29:_ZN7Iex_3_09EusersExcaSEOS0_
libIex-3_0.so.29:_ZN7Iex_3_09EusersExcaSERS0_
libIex-3_0.so.29:_ZN7Iex_3_09ExfullExcC1EONSt7__cxx1112basic_stringIcSt11char_traitsIcESaIcEEE
libIex-3_0.so.29:_ZN7Iex_3_09ExfullExcC1EOS0_
libIex-3_0.so.29:_ZN7Iex_3_09ExfullExcC1EPKc
libIex-3_0.so.29:_ZN7Iex_3_09ExfullExcC1ERKNSt7__cxx1112basic_stringIcSt11char_traitsIcESaIcEEE
libIex-3_0.so.29:_ZN7Iex_3_09ExfullExcC1ERKS0_
libIex-3_0.so.29:_ZN7Iex_3_09ExfullExcC1ERNSt7__cxx1118basic_stringstreamIcSt11char_traitsIcESaIcEEE
libIex-3_0.so.29:_ZN7Iex_3_09ExfullExcC1Ev
libIex-3_0.so.29:_ZN7Iex_3_09ExfullExcC2EONSt7__cxx1112basic_stringIcSt11char_traitsIcESaIcEEE
libIex-3_0.so.29:_ZN7Iex_3_09ExfullExcC2EOS0_
libIex-3_0.so.29:_ZN7Iex_3_09ExfullExcC2EPKc
libIex-3_0.so.29:_ZN7Iex_3_09ExfullExcC2ERKNSt7__cxx1112basic_stringIcSt11char_traitsIcESaIcEEE
libIex-3_0.so.29:_ZN7Iex_3_09ExfullExcC2ERKS0_
libIex-3_0.so.29:_ZN7Iex_3_09ExfullExcC2ERNSt7__cxx1118basic_stringstreamIcSt11char_traitsIcESaIcEEE
libIex-3_0.so.29:_ZN7Iex_3_09ExfullExcC2Ev
libIex-3_0.so.29:_ZN7Iex_3_09ExfullExcD0Ev
libIex-3_0.so.29:_ZN7Iex_3_09ExfullExcD1Ev
libIex-3_0.so.29:_ZN7Iex_3_09ExfullExcD2Ev
libIex-3_0.so.29:_ZN7Iex_3_09ExfullExcaSEOS0_
libIex-3_0.so.29:_ZN7Iex_3_09ExfullExcaSERS0_
libIex-3_0.so.29:_ZN7Iex_3_09MathExcOn27handleOutstandingExceptionsEv
libIex-3_0.so.29:_ZN7Iex_3_09MathExcOnC1Ei
libIex-3_0.so.29:_ZN7Iex_3_09MathExcOnC2Ei
libIex-3_0.so.29:_ZN7Iex_3_09MathExcOnD1Ev
libIex-3_0.so.29:_ZN7Iex_3_09MathExcOnD2Ev
libIex-3_0.so.29:_ZN7Iex_3_09NoImplExcC1EONSt7__cxx1112basic_stringIcSt11char_traitsIcESaIcEEE
libIex-3_0.so.29:_ZN7Iex_3_09NoImplExcC1EOS0_
libIex-3_0.so.29:_ZN7Iex_3_09NoImplExcC1EPKc
libIex-3_0.so.29:_ZN7Iex_3_09NoImplExcC1ERKNSt7__cxx1112basic_stringIcSt11char_traitsIcESaIcEEE
libIex-3_0.so.29:_ZN7Iex_3_09NoImplExcC1ERKS0_
libIex-3_0.so.29:_ZN7Iex_3_09NoImplExcC1ERNSt7__cxx1118basic_stringstreamIcSt11char_traitsIcESaIcEEE
libIex-3_0.so.29:_ZN7Iex_3_09NoImplExcC1Ev
libIex-3_0.so.29:_ZN7Iex_3_09NoImplExcC2EONSt7__cxx1112basic_stringIcSt11char_traitsIcESaIcEEE
libIex-3_0.so.29:_ZN7Iex_3_09NoImplExcC2EOS0_
libIex-3_0.so.29:_ZN7Iex_3_09NoImplExcC2EPKc
libIex-3_0.so.29:_ZN7Iex_3_09NoImplExcC2ERKNSt7__cxx1112basic_stringIcSt11char_traitsIcESaIcEEE
libIex-3_0.so.29:_ZN7Iex_3_09NoImplExcC2ERKS0_
libIex-3_0.so.29:_ZN7Iex_3_09NoImplExcC2ERNSt7__cxx1118basic_stringstreamIcSt11char_traitsIcESaIcEEE
libIex-3_0.so.29:_ZN7Iex_3_09NoImplExcC2Ev
libIex-3_0.so.29:_ZN7Iex_3_09NoImplExcD0Ev
libIex-3_0.so.29:_ZN7Iex_3_09NoImplExcD1Ev
libIex-3_0.so.29:_ZN7Iex_3_09NoImplExcD2Ev
libIex-3_0.so.29:_ZN7Iex_3_09NoImplExcaSEOS0_
libIex-3_0.so.29:_ZN7Iex_3_09NoImplExcaSERS0_
libIex-3_0.so.29:_ZN7Iex_3_09mathExcOnEi
libIex-3_0.so.29:_ZNK7Iex_3_07BaseExc10stackTraceB5cxx11Ev
libIex-3_0.so.29:_ZNK7Iex_3_07BaseExc4whatEv
libIex-3_0.so.29:_ZNK7Iex_3_07BaseExc7messageB5cxx11Ev
libIlmThread-3_0.so.29:_ZN13IlmThread_3_010ThreadPool13addGlobalTaskEPNS_4TaskE
libIlmThread-3_0.so.29:_ZN13IlmThread_3_010ThreadPool13setNumThreadsEi
libIlmThread-3_0.so.29:_ZN13IlmThread_3_010ThreadPool16globalThreadPoolEv
libIlmThread-3_0.so.29:_ZN13IlmThread_3_010ThreadPool17setThreadProviderEPNS_18ThreadPoolProviderE
libIlmThread-3_0.so.29:_ZN13IlmThread_3_010ThreadPool28estimateThreadCountForFileIOEv
libIlmThread-3_0.so.29:_ZN13IlmThread_3_010ThreadPool7addTaskEPNS_4TaskE
libIlmThread-3_0.so.29:_ZN13IlmThread_3_010ThreadPoolC1Ej
libIlmThread-3_0.so.29:_ZN13IlmThread_3_010ThreadPoolC2Ej
libIlmThread-3_0.so.29:_ZN13IlmThread_3_010ThreadPoolD0Ev
libIlmThread-3_0.so.29:_ZN13IlmThread_3_010ThreadPoolD1Ev
libIlmThread-3_0.so.29:_ZN13IlmThread_3_010ThreadPoolD2Ev
libIlmThread-3_0.so.29:_ZN13IlmThread_3_015supportsThreadsEv
libIlmThread-3_0.so.29:_ZN13IlmThread_3_018ThreadPoolProviderC1Ev
libIlmThread-3_0.so.29:_ZN13IlmThread_3_018ThreadPoolProviderC2Ev
libIlmThread-3_0.so.29:_ZN13IlmThread_3_018ThreadPoolProviderD0Ev
libIlmThread-3_0.so.29:_ZN13IlmThread_3_018ThreadPoolProviderD1Ev
libIlmThread-3_0.so.29:_ZN13IlmThread_3_018ThreadPoolProviderD2Ev
libIlmThread-3_0.so.29:_ZN13IlmThread_3_04Task5groupEv
libIlmThread-3_0.so.29:_ZN13IlmThread_3_04TaskC1EPNS_9TaskGroupE
libIlmThread-3_0.so.29:_ZN13IlmThread_3_04TaskC2EPNS_9TaskGroupE
libIlmThread-3_0.so.29:_ZN13IlmThread_3_04TaskD0Ev
libIlmThread-3_0.so.29:_ZN13IlmThread_3_04TaskD1Ev
libIlmThread-3_0.so.29:_ZN13IlmThread_3_04TaskD2Ev
libIlmThread-3_0.so.29:_ZN13IlmThread_3_06Thread4joinEv
libIlmThread-3_0.so.29:_ZN13IlmThread_3_06Thread5startEv
libIlmThread-3_0.so.29:_ZN13IlmThread_3_06ThreadC1Ev
libIlmThread-3_0.so.29:_ZN13IlmThread_3_06ThreadC2Ev
libIlmThread-3_0.so.29:_ZN13IlmThread_3_06ThreadD0Ev
libIlmThread-3_0.so.29:_ZN13IlmThread_3_06ThreadD1Ev
libIlmThread-3_0.so.29:_ZN13IlmThread_3_06ThreadD2Ev
libIlmThread-3_0.so.29:_ZN13IlmThread_3_09Semaphore4postEv
libIlmThread-3_0.so.29:_ZN13IlmThread_3_09Semaphore4waitEv
libIlmThread-3_0.so.29:_ZN13IlmThread_3_09Semaphore7tryWaitEv
libIlmThread-3_0.so.29:_ZN13IlmThread_3_09SemaphoreC1Ej
libIlmThread-3_0.so.29:_ZN13IlmThread_3_09SemaphoreC2Ej
libIlmThread-3_0.so.29:_ZN13IlmThread_3_09SemaphoreD0Ev
libIlmThread-3_0.so.29:_ZN13IlmThread_3_09SemaphoreD1Ev
libIlmThread-3_0.so.29:_ZN13IlmThread_3_09SemaphoreD2Ev
libIlmThread-3_0.so.29:_ZN13IlmThread_3_09TaskGroup13finishOneTaskEv
libIlmThread-3_0.so.29:_ZN13IlmThread_3_09TaskGroupC1Ev
libIlmThread-3_0.so.29:_ZN13IlmThread_3_09TaskGroupC2Ev
libIlmThread-3_0.so.29:_ZN13IlmThread_3_09TaskGroupD1Ev
libIlmThread-3_0.so.29:_ZN13IlmThread_3_09TaskGroupD2Ev
libIlmThread-3_0.so.29:_ZNK13IlmThread_3_010ThreadPool10numThreadsEv
libIlmThread-3_0.so.29:_ZNK13IlmThread_3_06Thread8joinableEv
libIlmThread-3_0.so.29:_ZNK13IlmThread_3_09Semaphore5valueEv
libOpenEXR-3_0.so.29:ImfApplyLut
libOpenEXR-3_0.so.29:ImfCloseInputFile
libOpenEXR-3_0.so.29:ImfCloseOutputFile
libOpenEXR-3_0.so.29:ImfCloseTiledInputFile
libOpenEXR-3_0.so.29:ImfCloseTiledOutputFile
libOpenEXR-3_0.so.29:ImfCopyHeader
libOpenEXR-3_0.so.29:ImfDeleteHeader
libOpenEXR-3_0.so.29:ImfDeleteLut
libOpenEXR-3_0.so.29:ImfErrorMessage
libOpenEXR-3_0.so.29:ImfFloatToHalf
libOpenEXR-3_0.so.29:ImfFloatToHalfArray
libOpenEXR-3_0.so.29:ImfHalfToFloat
libOpenEXR-3_0.so.29:ImfHalfToFloatArray
libOpenEXR-3_0.so.29:ImfHeaderBox2fAttribute
libOpenEXR-3_0.so.29:ImfHeaderBox2iAttribute
libOpenEXR-3_0.so.29:ImfHeaderCompression
libOpenEXR-3_0.so.29:ImfHeaderDataWindow
libOpenEXR-3_0.so.29:ImfHeaderDisplayWindow
libOpenEXR-3_0.so.29:ImfHeaderDoubleAttribute
libOpenEXR-3_0.so.29:ImfHeaderFloatAttribute
libOpenEXR-3_0.so.29:ImfHeaderIntAttribute
libOpenEXR-3_0.so.29:ImfHeaderLineOrder
libOpenEXR-3_0.so.29:ImfHeaderM33fAttribute
libOpenEXR-3_0.so.29:ImfHeaderM44fAttribute
libOpenEXR-3_0.so.29:ImfHeaderPixelAspectRatio
libOpenEXR-3_0.so.29:ImfHeaderScreenWindowCenter
libOpenEXR-3_0.so.29:ImfHeaderScreenWindowWidth
libOpenEXR-3_0.so.29:ImfHeaderSetBox2fAttribute
libOpenEXR-3_0.so.29:ImfHeaderSetBox2iAttribute
libOpenEXR-3_0.so.29:ImfHeaderSetCompression
libOpenEXR-3_0.so.29:ImfHeaderSetDataWindow
libOpenEXR-3_0.so.29:ImfHeaderSetDisplayWindow
libOpenEXR-3_0.so.29:ImfHeaderSetDoubleAttribute
libOpenEXR-3_0.so.29:ImfHeaderSetFloatAttribute
libOpenEXR-3_0.so.29:ImfHeaderSetIntAttribute
libOpenEXR-3_0.so.29:ImfHeaderSetLineOrder
libOpenEXR-3_0.so.29:ImfHeaderSetM33fAttribute
libOpenEXR-3_0.so.29:ImfHeaderSetM44fAttribute
libOpenEXR-3_0.so.29:ImfHeaderSetPixelAspectRatio
libOpenEXR-3_0.so.29:ImfHeaderSetScreenWindowCenter
libOpenEXR-3_0.so.29:ImfHeaderSetScreenWindowWidth
libOpenEXR-3_0.so.29:ImfHeaderSetStringAttribute
libOpenEXR-3_0.so.29:ImfHeaderSetV2fAttribute
libOpenEXR-3_0.so.29:ImfHeaderSetV2iAttribute
libOpenEXR-3_0.so.29:ImfHeaderSetV3fAttribute
libOpenEXR-3_0.so.29:ImfHeaderSetV3iAttribute
libOpenEXR-3_0.so.29:ImfHeaderStringAttribute
libOpenEXR-3_0.so.29:ImfHeaderV2fAttribute
libOpenEXR-3_0.so.29:ImfHeaderV2iAttribute
libOpenEXR-3_0.so.29:ImfHeaderV3fAttribute
libOpenEXR-3_0.so.29:ImfHeaderV3iAttribute
libOpenEXR-3_0.so.29:ImfInputChannels
libOpenEXR-3_0.so.29:ImfInputFileName
libOpenEXR-3_0.so.29:ImfInputHeader
libOpenEXR-3_0.so.29:ImfInputReadPixels
libOpenEXR-3_0.so.29:ImfInputSetFrameBuffer
libOpenEXR-3_0.so.29:ImfNewHeader
libOpenEXR-3_0.so.29:ImfNewRound12logLut
libOpenEXR-3_0.so.29:ImfNewRoundNBitLut
libOpenEXR-3_0.so.29:ImfOpenInputFile
libOpenEXR-3_0.so.29:ImfOpenOutputFile
libOpenEXR-3_0.so.29:ImfOpenTiledInputFile
libOpenEXR-3_0.so.29:ImfOpenTiledOutputFile
libOpenEXR-3_0.so.29:ImfOutputChannels
libOpenEXR-3_0.so.29:ImfOutputCurrentScanLine
libOpenEXR-3_0.so.29:ImfOutputHeader
libOpenEXR-3_0.so.29:ImfOutputSetFrameBuffer
libOpenEXR-3_0.so.29:ImfOutputWritePixels
libOpenEXR-3_0.so.29:ImfTiledInputChannels
libOpenEXR-3_0.so.29:ImfTiledInputFileName
libOpenEXR-3_0.so.29:ImfTiledInputHeader
libOpenEXR-3_0.so.29:ImfTiledInputLevelMode
libOpenEXR-3_0.so.29:ImfTiledInputLevelRoundingMode
libOpenEXR-3_0.so.29:ImfTiledInputReadTile
libOpenEXR-3_0.so.29:ImfTiledInputReadTiles
libOpenEXR-3_0.so.29:ImfTiledInputSetFrameBuffer
libOpenEXR-3_0.so.29:ImfTiledInputTileXSize
libOpenEXR-3_0.so.29:ImfTiledInputTileYSize
libOpenEXR-3_0.so.29:ImfTiledOutputChannels
libOpenEXR-3_0.so.29:ImfTiledOutputHeader
libOpenEXR-3_0.so.29:ImfTiledOutputLevelMode
libOpenEXR-3_0.so.29:ImfTiledOutputLevelRoundingMode
libOpenEXR-3_0.so.29:ImfTiledOutputSetFrameBuffer
libOpenEXR-3_0.so.29:ImfTiledOutputTileXSize
libOpenEXR-3_0.so.29:ImfTiledOutputTileYSize
libOpenEXR-3_0.so.29:ImfTiledOutputWriteTile
libOpenEXR-3_0.so.29:ImfTiledOutputWriteTiles
libOpenEXR-3_0.so.29:_ZN7Imf_3_010Compressor12compressTileEPKciN9Imath_3_03BoxINS3_4Vec2IiEEEERS2_
libOpenEXR-3_0.so.29:_ZN7Imf_3_010Compressor14uncompressTileEPKciN9Imath_3_03BoxINS3_4Vec2IiEEEERS2_
libOpenEXR-3_0.so.29:_ZN7Imf_3_010CompressorC1ERKNS_6HeaderE
libOpenEXR-3_0.so.29:_ZN7Imf_3_010CompressorC2ERKNS_6HeaderE
libOpenEXR-3_0.so.29:_ZN7Imf_3_010CompressorD0Ev
libOpenEXR-3_0.so.29:_ZN7Imf_3_010CompressorD1Ev
libOpenEXR-3_0.so.29:_ZN7Imf_3_010CompressorD2Ev
libOpenEXR-3_0.so.29:_ZN7Imf_3_010IDManifest12MurmurHash32ERKNSt7__cxx1112basic_stringIcSt11char_traitsIcESaIcEEE
libOpenEXR-3_0.so.29:_ZN7Imf_3_010IDManifest12MurmurHash32ERKSt6vectorINSt7__cxx1112basic_stringIcSt11char_traitsIcESaIcEEESaIS7_EE
libOpenEXR-3_0.so.29:_ZN7Imf_3_010IDManifest12MurmurHash64ERKNSt7__cxx1112basic_stringIcSt11char_traitsIcESaIcEEE
libOpenEXR-3_0.so.29:_ZN7Imf_3_010IDManifest12MurmurHash64ERKSt6vectorINSt7__cxx1112basic_stringIcSt11char_traitsIcESaIcEEESaIS7_EE
libOpenEXR-3_0.so.29:_ZN7Imf_3_010IDManifest20ChannelGroupManifest10setChannelERKNSt7__cxx1112basic_stringIcSt11char_traitsIcESaIcEEE
libOpenEXR-3_0.so.29:_ZN7Imf_3_010IDManifest20ChannelGroupManifest11getChannelsB5cxx11Ev
libOpenEXR-3_0.so.29:_ZN7Imf_3_010IDManifest20ChannelGroupManifest11setChannelsERKSt3setINSt7__cxx1112basic_stringIcSt11char_traitsIcESaIcEEESt4lessIS8_ESaIS8_EE
libOpenEXR-3_0.so.29:_ZN7Imf_3_010IDManifest20ChannelGroupManifest12setComponentERKNSt7__cxx1112basic_stringIcSt11char_traitsIcESaIcEEE
libOpenEXR-3_0.so.29:_ZN7Imf_3_010IDManifest20ChannelGroupManifest13setComponentsERKSt6vectorINSt7__cxx1112basic_stringIcSt11char_traitsIcESaIcEEESaIS8_EE
libOpenEXR-3_0.so.29:_ZN7Imf_3_010IDManifest20ChannelGroupManifest3endEv
libOpenEXR-3_0.so.29:_ZN7Imf_3_010IDManifest20ChannelGroupManifest4findEm
libOpenEXR-3_0.so.29:_ZN7Imf_3_010IDManifest20ChannelGroupManifest5beginEv
libOpenEXR-3_0.so.29:_ZN7Imf_3_010IDManifest20ChannelGroupManifest5eraseEm
libOpenEXR-3_0.so.29:_ZN7Imf_3_010IDManifest20ChannelGroupManifest6insertERKNSt7__cxx1112basic_stringIcSt11char_traitsIcESaIcEEE
libOpenEXR-3_0.so.29:_ZN7Imf_3_010IDManifest20ChannelGroupManifest6insertERKSt6vectorINSt7__cxx1112basic_stringIcSt11char_traitsIcESaIcEEESaIS8_EE
libOpenEXR-3_0.so.29:_ZN7Imf_3_010IDManifest20ChannelGroupManifest6insertEmRKNSt7__cxx1112basic_stringIcSt11char_traitsIcESaIcEEE
libOpenEXR-3_0.so.29:_ZN7Imf_3_010IDManifest20ChannelGroupManifest6insertEmRKSt6vectorINSt7__cxx1112basic_stringIcSt11char_traitsIcESaIcEEESaIS8_EE
libOpenEXR-3_0.so.29:_ZN7Imf_3_010IDManifest20ChannelGroupManifestC1Ev
libOpenEXR-3_0.so.29:_ZN7Imf_3_010IDManifest20ChannelGroupManifestC2Ev
libOpenEXR-3_0.so.29:_ZN7Imf_3_010IDManifest20ChannelGroupManifestixB5cxx11Em
libOpenEXR-3_0.so.29:_ZN7Imf_3_010IDManifest20ChannelGroupManifestlsERKNSt7__cxx1112basic_stringIcSt11char_traitsIcESaIcEEE
libOpenEXR-3_0.so.29:_ZN7Imf_3_010IDManifest20ChannelGroupManifestlsEm
libOpenEXR-3_0.so.29:_ZN7Imf_3_010IDManifest3addERKNS0_20ChannelGroupManifestE
libOpenEXR-3_0.so.29:_ZN7Imf_3_010IDManifest3addERKNSt7__cxx1112basic_stringIcSt11char_traitsIcESaIcEEE
libOpenEXR-3_0.so.29:_ZN7Imf_3_010IDManifest3addERKSt3setINSt7__cxx1112basic_stringIcSt11char_traitsIcESaIcEEESt4lessIS7_ESaIS7_EE
libOpenEXR-3_0.so.29:_ZN7Imf_3_010IDManifest5mergeERKS0_
libOpenEXR-3_0.so.29:_ZN7Imf_3_010IDManifestC1EPKcS2_
libOpenEXR-3_0.so.29:_ZN7Imf_3_010IDManifestC1ERKNS_20CompressedIDManifestE
libOpenEXR-3_0.so.29:_ZN7Imf_3_010IDManifestC1Ev
libOpenEXR-3_0.so.29:_ZN7Imf_3_010IDManifestC2EPKcS2_
libOpenEXR-3_0.so.29:_ZN7Imf_3_010IDManifestC2ERKNS_20CompressedIDManifestE
libOpenEXR-3_0.so.29:_ZN7Imf_3_010IDManifestC2Ev
libOpenEXR-3_0.so.29:_ZN7Imf_3_010IDManifestixEm
libOpenEXR-3_0.so.29:_ZN7Imf_3_010LatLongMap13pixelPositionERKN9Imath_3_03BoxINS1_4Vec2IiEEEERKNS1_4Vec3IfEE
libOpenEXR-3_0.so.29:_ZN7Imf_3_010LatLongMap13pixelPositionERKN9Imath_3_03BoxINS1_4Vec2IiEEEERKNS3_IfEE
libOpenEXR-3_0.so.29:_ZN7Imf_3_010LatLongMap7latLongERKN9Imath_3_03BoxINS1_4Vec2IiEEEERKNS3_IfEE
libOpenEXR-3_0.so.29:_ZN7Imf_3_010LatLongMap7latLongERKN9Imath_3_04Vec3IfEE
libOpenEXR-3_0.so.29:_ZN7Imf_3_010LatLongMap9directionERKN9Imath_3_03BoxINS1_4Vec2IiEEEERKNS3_IfEE
libOpenEXR-3_0.so.29:_ZN7Imf_3_010OutputFile10copyPixelsERNS_9InputFileE
libOpenEXR-3_0.so.29:_ZN7Imf_3_010OutputFile10copyPixelsERNS_9InputPartE
libOpenEXR-3_0.so.29:_ZN7Imf_3_010OutputFile10initializeERKNS_6HeaderE
libOpenEXR-3_0.so.29:_ZN7Imf_3_010OutputFile11writePixelsEi
libOpenEXR-3_0.so.29:_ZN7Imf_3_010OutputFile13breakScanLineEiiic
libOpenEXR-3_0.so.29:_ZN7Imf_3_010OutputFile14setFrameBufferERKNS_11FrameBufferE
libOpenEXR-3_0.so.29:_ZN7Imf_3_010OutputFile18updatePreviewImageEPKNS_11PreviewRgbaE
libOpenEXR-3_0.so.29:_ZN7Imf_3_010OutputFileC1EPKcRKNS_6HeaderEi
libOpenEXR-3_0.so.29:_ZN7Imf_3_010OutputFileC1ERNS_7OStreamERKNS_6HeaderEi
libOpenEXR-3_0.so.29:_ZN7Imf_3_010OutputFileC2EPKcRKNS_6HeaderEi
libOpenEXR-3_0.so.29:_ZN7Imf_3_010OutputFileC2ERNS_7OStreamERKNS_6HeaderEi
libOpenEXR-3_0.so.29:_ZN7Imf_3_010OutputFileD0Ev
libOpenEXR-3_0.so.29:_ZN7Imf_3_010OutputFileD1Ev
libOpenEXR-3_0.so.29:_ZN7Imf_3_010OutputFileD2Ev
libOpenEXR-3_0.so.29:_ZN7Imf_3_010OutputPart10copyPixelsERNS_9InputFileE
libOpenEXR-3_0.so.29:_ZN7Imf_3_010OutputPart10copyPixelsERNS_9InputPartE
libOpenEXR-3_0.so.29:_ZN7Imf_3_010OutputPart11writePixelsEi
libOpenEXR-3_0.so.29:_ZN7Imf_3_010OutputPart13breakScanLineEiiic
libOpenEXR-3_0.so.29:_ZN7Imf_3_010OutputPart14setFrameBufferERKNS_11FrameBufferE
libOpenEXR-3_0.so.29:_ZN7Imf_3_010OutputPart18updatePreviewImageEPKNS_11PreviewRgbaE
libOpenEXR-3_0.so.29:_ZN7Imf_3_010OutputPartC1ERNS_19MultiPartOutputFileEi
libOpenEXR-3_0.so.29:_ZN7Imf_3_010OutputPartC2ERNS_19MultiPartOutputFileEi
libOpenEXR-3_0.so.29:_ZN7Imf_3_010addCapDateERNS_6HeaderERKNSt7__cxx1112basic_stringIcSt11char_traitsIcESaIcEEE
libOpenEXR-3_0.so.29:_ZN7Imf_3_010addExpTimeERNS_6HeaderERKf
libOpenEXR-3_0.so.29:_ZN7Imf_3_010addKeyCodeERNS_6HeaderERKNS_7KeyCodeE
libOpenEXR-3_0.so.29:_ZN7Imf_3_010halfToUintEN9Imath_3_04halfE
libOpenEXR-3_0.so.29:_ZN7Imf_3_010hasCapDateERKNS_6HeaderE
libOpenEXR-3_0.so.29:_ZN7Imf_3_010hasExpTimeERKNS_6HeaderE
libOpenEXR-3_0.so.29:_ZN7Imf_3_010hasKeyCodeERKNS_6HeaderE
libOpenEXR-3_0.so.29:_ZN7Imf_3_010idManifestERKNS_6HeaderE
libOpenEXR-3_0.so.29:_ZN7Imf_3_010idManifestERNS_6HeaderE
libOpenEXR-3_0.so.29:_ZN7Imf_3_010isDeepDataERKNSt7__cxx1112basic_stringIcSt11char_traitsIcESaIcEEE
libOpenEXR-3_0.so.29:_ZN7Imf_3_010isImfMagicEPKc
libOpenEXR-3_0.so.29:_ZN7Imf_3_010numSamplesEiii
libOpenEXR-3_0.so.29:_ZN7Imf_3_010round12logEN9Imath_3_04halfE
libOpenEXR-3_0.so.29:_ZN7Imf_3_010uintToHalfEj
libOpenEXR-3_0.so.29:_ZN7Imf_3_010wav2DecodeEPtiiiit
libOpenEXR-3_0.so.29:_ZN7Imf_3_010wav2EncodeEPtiiiit
libOpenEXR-3_0.so.29:_ZN7Imf_3_010worldToNDCERKNS_6HeaderE
libOpenEXR-3_0.so.29:_ZN7Imf_3_010worldToNDCERNS_6HeaderE
libOpenEXR-3_0.so.29:_ZN7Imf_3_011ChannelList11findChannelEPKc
libOpenEXR-3_0.so.29:_ZN7Imf_3_011ChannelList11findChannelERKNSt7__cxx1112basic_stringIcSt11char_traitsIcESaIcEEE
libOpenEXR-3_0.so.29:_ZN7Imf_3_011ChannelList15channelsInLayerERKNSt7__cxx1112basic_stringIcSt11char_traitsIcESaIcEEERNS0_8IteratorESA_
libOpenEXR-3_0.so.29:_ZN7Imf_3_011ChannelList18channelsWithPrefixEPKcRNS0_8IteratorES4_
libOpenEXR-3_0.so.29:_ZN7Imf_3_011ChannelList18channelsWithPrefixERKNSt7__cxx1112basic_stringIcSt11char_traitsIcESaIcEEERNS0_8IteratorESA_
libOpenEXR-3_0.so.29:_ZN7Imf_3_011ChannelList3endEv
libOpenEXR-3_0.so.29:_ZN7Imf_3_011ChannelList4findEPKc
libOpenEXR-3_0.so.29:_ZN7Imf_3_011ChannelList4findERKNSt7__cxx1112basic_stringIcSt11char_traitsIcESaIcEEE
libOpenEXR-3_0.so.29:_ZN7Imf_3_011ChannelList5beginEv
libOpenEXR-3_0.so.29:_ZN7Imf_3_011ChannelList6insertEPKcRKNS_7ChannelE
libOpenEXR-3_0.so.29:_ZN7Imf_3_011ChannelList6insertERKNSt7__cxx1112basic_stringIcSt11char_traitsIcESaIcEEERKNS_7ChannelE
libOpenEXR-3_0.so.29:_ZN7Imf_3_011ChannelListixEPKc
libOpenEXR-3_0.so.29:_ZN7Imf_3_011ChannelListixERKNSt7__cxx1112basic_stringIcSt11char_traitsIcESaIcEEE
libOpenEXR-3_0.so.29:_ZN7Imf_3_011FrameBuffer3endEv
libOpenEXR-3_0.so.29:_ZN7Imf_3_011FrameBuffer4findEPKc
libOpenEXR-3_0.so.29:_ZN7Imf_3_011FrameBuffer4findERKNSt7__cxx1112basic_stringIcSt11char_traitsIcESaIcEEE
libOpenEXR-3_0.so.29:_ZN7Imf_3_011FrameBuffer5beginEv
libOpenEXR-3_0.so.29:_ZN7Imf_3_011FrameBuffer6insertEPKcRKNS_5SliceE
libOpenEXR-3_0.so.29:_ZN7Imf_3_011FrameBuffer6insertERKNSt7__cxx1112basic_stringIcSt11char_traitsIcESaIcEEERKNS_5SliceE
libOpenEXR-3_0.so.29:_ZN7Imf_3_011FrameBuffer9findSliceEPKc
libOpenEXR-3_0.so.29:_ZN7Imf_3_011FrameBuffer9findSliceERKNSt7__cxx1112basic_stringIcSt11char_traitsIcESaIcEEE
libOpenEXR-3_0.so.29:_ZN7Imf_3_011FrameBufferixEPKc
libOpenEXR-3_0.so.29:_ZN7Imf_3_011FrameBufferixERKNSt7__cxx1112basic_stringIcSt11char_traitsIcESaIcEEE
libOpenEXR-3_0.so.29:_ZN7Imf_3_011StdIFStream4readEPci
libOpenEXR-3_0.so.29:_ZN7Imf_3_011StdIFStream5clearEv
libOpenEXR-3_0.so.29:_ZN7Imf_3_011StdIFStream5seekgEm
libOpenEXR-3_0.so.29:_ZN7Imf_3_011StdIFStream5tellgEv
libOpenEXR-3_0.so.29:_ZN7Imf_3_011StdIFStreamC1EPKc
libOpenEXR-3_0.so.29:_ZN7Imf_3_011StdIFStreamC1ERSt14basic_ifstreamIcSt11char_traitsIcEEPKc
libOpenEXR-3_0.so.29:_ZN7Imf_3_011StdIFStreamC2EPKc
libOpenEXR-3_0.so.29:_ZN7Imf_3_011StdIFStreamC2ERSt14basic_ifstreamIcSt11char_traitsIcEEPKc
libOpenEXR-3_0.so.29:_ZN7Imf_3_011StdIFStreamD0Ev
libOpenEXR-3_0.so.29:_ZN7Imf_3_011StdIFStreamD1Ev
libOpenEXR-3_0.so.29:_ZN7Imf_3_011StdIFStreamD2Ev
libOpenEXR-3_0.so.29:_ZN7Imf_3_011StdISStream3strERKNSt7__cxx1112basic_stringIcSt11char_traitsIcESaIcEEE
libOpenEXR-3_0.so.29:_ZN7Imf_3_011StdISStream4readEPci
libOpenEXR-3_0.so.29:_ZN7Imf_3_011StdISStream5clearEv
libOpenEXR-3_0.so.29:_ZN7Imf_3_011StdISStream5seekgEm
libOpenEXR-3_0.so.29:_ZN7Imf_3_011StdISStream5tellgEv
libOpenEXR-3_0.so.29:_ZN7Imf_3_011StdISStreamC1Ev
libOpenEXR-3_0.so.29:_ZN7Imf_3_011StdISStreamC2Ev
libOpenEXR-3_0.so.29:_ZN7Imf_3_011StdISStreamD0Ev
libOpenEXR-3_0.so.29:_ZN7Imf_3_011StdISStreamD1Ev
libOpenEXR-3_0.so.29:_ZN7Imf_3_011StdISStreamD2Ev
libOpenEXR-3_0.so.29:_ZN7Imf_3_011StdOFStream5seekpEm
libOpenEXR-3_0.so.29:_ZN7Imf_3_011StdOFStream5tellpEv
libOpenEXR-3_0.so.29:_ZN7Imf_3_011StdOFStream5writeEPKci
libOpenEXR-3_0.so.29:_ZN7Imf_3_011StdOFStreamC1EPKc
libOpenEXR-3_0.so.29:_ZN7Imf_3_011StdOFStreamC1ERSt14basic_ofstreamIcSt11char_traitsIcEEPKc
libOpenEXR-3_0.so.29:_ZN7Imf_3_011StdOFStreamC2EPKc
libOpenEXR-3_0.so.29:_ZN7Imf_3_011StdOFStreamC2ERSt14basic_ofstreamIcSt11char_traitsIcEEPKc
libOpenEXR-3_0.so.29:_ZN7Imf_3_011StdOFStreamD0Ev
libOpenEXR-3_0.so.29:_ZN7Imf_3_011StdOFStreamD1Ev
libOpenEXR-3_0.so.29:_ZN7Imf_3_011StdOFStreamD2Ev
libOpenEXR-3_0.so.29:_ZN7Imf_3_011StdOSStream5seekpEm
libOpenEXR-3_0.so.29:_ZN7Imf_3_011StdOSStream5tellpEv
libOpenEXR-3_0.so.29:_ZN7Imf_3_011StdOSStream5writeEPKci
libOpenEXR-3_0.so.29:_ZN7Imf_3_011StdOSStreamC1Ev
libOpenEXR-3_0.so.29:_ZN7Imf_3_011StdOSStreamC2Ev
libOpenEXR-3_0.so.29:_ZN7Imf_3_011StdOSStreamD0Ev
libOpenEXR-3_0.so.29:_ZN7Imf_3_011StdOSStreamD1Ev
libOpenEXR-3_0.so.29:_ZN7Imf_3_011StdOSStreamD2Ev
libOpenEXR-3_0.so.29:_ZN7Imf_3_011TileOffsets8readFromERNS_7IStreamERbbb
libOpenEXR-3_0.so.29:_ZN7Imf_3_011TileOffsets8readFromESt6vectorImSaImEERb
libOpenEXR-3_0.so.29:_ZN7Imf_3_011TileOffsetsC1ENS_9LevelModeEiiPKiS3_
libOpenEXR-3_0.so.29:_ZN7Imf_3_011TileOffsetsC2ENS_9LevelModeEiiPKiS3_
libOpenEXR-3_0.so.29:_ZN7Imf_3_011TileOffsetsclEiii
libOpenEXR-3_0.so.29:_ZN7Imf_3_011TileOffsetsclEiiii
libOpenEXR-3_0.so.29:_ZN7Imf_3_011addAltitudeERNS_6HeaderERKf
libOpenEXR-3_0.so.29:_ZN7Imf_3_011addApertureERNS_6HeaderERKf
libOpenEXR-3_0.so.29:_ZN7Imf_3_011addCommentsERNS_6HeaderERKNSt7__cxx1112basic_stringIcSt11char_traitsIcESaIcEEE
libOpenEXR-3_0.so.29:_ZN7Imf_3_011addIsoSpeedERNS_6HeaderERKf
libOpenEXR-3_0.so.29:_ZN7Imf_3_011addLatitudeERNS_6HeaderERKf
libOpenEXR-3_0.so.29:_ZN7Imf_3_011addTimeCodeERNS_6HeaderERKNS_8TimeCodeE
libOpenEXR-3_0.so.29:_ZN7Imf_3_011addXDensityERNS_6HeaderERKf
libOpenEXR-3_0.so.29:_ZN7Imf_3_011floatToHalfEf
libOpenEXR-3_0.so.29:_ZN7Imf_3_011floatToUintEf
libOpenEXR-3_0.so.29:_ZN7Imf_3_011hasAltitudeERKNS_6HeaderE
libOpenEXR-3_0.so.29:_ZN7Imf_3_011hasApertureERKNS_6HeaderE
libOpenEXR-3_0.so.29:_ZN7Imf_3_011hasCommentsERKNS_6HeaderE
libOpenEXR-3_0.so.29:_ZN7Imf_3_011hasIsoSpeedERKNS_6HeaderE
libOpenEXR-3_0.so.29:_ZN7Imf_3_011hasLatitudeERKNS_6HeaderE
libOpenEXR-3_0.so.29:_ZN7Imf_3_011hasTimeCodeERKNS_6HeaderE
libOpenEXR-3_0.so.29:_ZN7Imf_3_011hasXDensityERKNS_6HeaderE
libOpenEXR-3_0.so.29:_ZN7Imf_3_011hufCompressEPKtiPc
libOpenEXR-3_0.so.29:_ZN7Imf_3_011rleCompressEiPKcPa
libOpenEXR-3_0.so.29:_ZN7Imf_3_011skipChannelERPKcNS_9PixelTypeEm
libOpenEXR-3_0.so.29:_ZN7Imf_3_012PreviewImageC1ERKS0_
libOpenEXR-3_0.so.29:_ZN7Imf_3_012PreviewImageC1EjjPKNS_11PreviewRgbaE
libOpenEXR-3_0.so.29:_ZN7Imf_3_012PreviewImageC2ERKS0_
libOpenEXR-3_0.so.29:_ZN7Imf_3_012PreviewImageC2EjjPKNS_11PreviewRgbaE
libOpenEXR-3_0.so.29:_ZN7Imf_3_012PreviewImageD1Ev
libOpenEXR-3_0.so.29:_ZN7Imf_3_012PreviewImageD2Ev
libOpenEXR-3_0.so.29:_ZN7Imf_3_012PreviewImageaSERKS0_
libOpenEXR-3_0.so.29:_ZN7Imf_3_012addLongitudeERNS_6HeaderERKf
libOpenEXR-3_0.so.29:_ZN7Imf_3_012addMultiViewERNS_6HeaderERKSt6vectorINSt7__cxx1112basic_stringIcSt11char_traitsIcESaIcEEESaIS8_EE
libOpenEXR-3_0.so.29:_ZN7Imf_3_012addUtcOffsetERNS_6HeaderERKf
libOpenEXR-3_0.so.29:_ZN7Imf_3_012addWrapmodesERNS_6HeaderERKNSt7__cxx1112basic_stringIcSt11char_traitsIcESaIcEEE
libOpenEXR-3_0.so.29:_ZN7Imf_3_012hasLongitudeERKNS_6HeaderE
libOpenEXR-3_0.so.29:_ZN7Imf_3_012hasMultiViewERKNS_6HeaderE
libOpenEXR-3_0.so.29:_ZN7Imf_3_012hasUtcOffsetERKNS_6HeaderE
libOpenEXR-3_0.so.29:_ZN7Imf_3_012hasWrapmodesERKNS_6HeaderE
libOpenEXR-3_0.so.29:_ZN7Imf_3_013AcesInputFile10readPixelsEi
libOpenEXR-3_0.so.29:_ZN7Imf_3_013AcesInputFile10readPixelsEii
libOpenEXR-3_0.so.29:_ZN7Imf_3_013AcesInputFile14setFrameBufferEPNS_4RgbaEmm
libOpenEXR-3_0.so.29:_ZN7Imf_3_013AcesInputFileC1ERKNSt7__cxx1112basic_stringIcSt11char_traitsIcESaIcEEEi
libOpenEXR-3_0.so.29:_ZN7Imf_3_013AcesInputFileC1ERNS_7IStreamEi
libOpenEXR-3_0.so.29:_ZN7Imf_3_013AcesInputFileC2ERKNSt7__cxx1112basic_stringIcSt11char_traitsIcESaIcEEEi
libOpenEXR-3_0.so.29:_ZN7Imf_3_013AcesInputFileC2ERNS_7IStreamEi
libOpenEXR-3_0.so.29:_ZN7Imf_3_013AcesInputFileD0Ev
libOpenEXR-3_0.so.29:_ZN7Imf_3_013AcesInputFileD1Ev
libOpenEXR-3_0.so.29:_ZN7Imf_3_013AcesInputFileD2Ev
libOpenEXR-3_0.so.29:_ZN7Imf_3_013RgbaInputFile10readPixelsEi
libOpenEXR-3_0.so.29:_ZN7Imf_3_013RgbaInputFile10readPixelsEii
libOpenEXR-3_0.so.29:_ZN7Imf_3_013RgbaInputFile12setLayerNameERKNSt7__cxx1112basic_stringIcSt11char_traitsIcESaIcEEE
libOpenEXR-3_0.so.29:_ZN7Imf_3_013RgbaInputFile14setFrameBufferEPNS_4RgbaEmm
libOpenEXR-3_0.so.29:_ZN7Imf_3_013RgbaInputFileC1EPKcRKNSt7__cxx1112basic_stringIcSt11char_traitsIcESaIcEEEi
libOpenEXR-3_0.so.29:_ZN7Imf_3_013RgbaInputFileC1EPKci
libOpenEXR-3_0.so.29:_ZN7Imf_3_013RgbaInputFileC1ERNS_7IStreamERKNSt7__cxx1112basic_stringIcSt11char_traitsIcESaIcEEEi
libOpenEXR-3_0.so.29:_ZN7Imf_3_013RgbaInputFileC1ERNS_7IStreamEi
libOpenEXR-3_0.so.29:_ZN7Imf_3_013RgbaInputFileC2EPKcRKNSt7__cxx1112basic_stringIcSt11char_traitsIcESaIcEEEi
libOpenEXR-3_0.so.29:_ZN7Imf_3_013RgbaInputFileC2EPKci
libOpenEXR-3_0.so.29:_ZN7Imf_3_013RgbaInputFileC2ERNS_7IStreamERKNSt7__cxx1112basic_stringIcSt11char_traitsIcESaIcEEEi
libOpenEXR-3_0.so.29:_ZN7Imf_3_013RgbaInputFileC2ERNS_7IStreamEi
libOpenEXR-3_0.so.29:_ZN7Imf_3_013RgbaInputFileD0Ev
libOpenEXR-3_0.so.29:_ZN7Imf_3_013RgbaInputFileD1Ev
libOpenEXR-3_0.so.29:_ZN7Imf_3_013RgbaInputFileD2Ev
libOpenEXR-3_0.so.29:_ZN7Imf_3_013addIDManifestERNS_6HeaderERKNS_20CompressedIDManifestE
libOpenEXR-3_0.so.29:_ZN7Imf_3_013addWorldToNDCERNS_6HeaderERKN9Imath_3_08Matrix44IfEE
libOpenEXR-3_0.so.29:_ZN7Imf_3_013defaultFormatEPNS_10CompressorE
libOpenEXR-3_0.so.29:_ZN7Imf_3_013guessExactFpsERKNS_8RationalE
libOpenEXR-3_0.so.29:_ZN7Imf_3_013guessExactFpsEd
libOpenEXR-3_0.so.29:_ZN7Imf_3_013hasIDManifestERKNS_6HeaderE
libOpenEXR-3_0.so.29:_ZN7Imf_3_013hasWorldToNDCERKNS_6HeaderE
libOpenEXR-3_0.so.29:_ZN7Imf_3_013hufUncompressEPKciPti
libOpenEXR-3_0.so.29:_ZN7Imf_3_013isOpenExrFileEPKc
libOpenEXR-3_0.so.29:_ZN7Imf_3_013isOpenExrFileEPKcRb
libOpenEXR-3_0.so.29:_ZN7Imf_3_013isOpenExrFileEPKcRbS2_
libOpenEXR-3_0.so.29:_ZN7Imf_3_013isOpenExrFileEPKcRbS2_S2_
libOpenEXR-3_0.so.29:_ZN7Imf_3_013isOpenExrFileERNS_7IStreamE
libOpenEXR-3_0.so.29:_ZN7Imf_3_013isOpenExrFileERNS_7IStreamERb
libOpenEXR-3_0.so.29:_ZN7Imf_3_013isOpenExrFileERNS_7IStreamERbS2_
libOpenEXR-3_0.so.29:_ZN7Imf_3_013isOpenExrFileERNS_7IStreamERbS2_S2_
libOpenEXR-3_0.so.29:_ZN7Imf_3_013newCompressorENS_11CompressionEmRKNS_6HeaderE
libOpenEXR-3_0.so.29:_ZN7Imf_3_013pixelTypeSizeENS_9PixelTypeE
libOpenEXR-3_0.so.29:_ZN7Imf_3_013rleUncompressEiiPKaPc
libOpenEXR-3_0.so.29:_ZN7Imf_3_013usesLongNamesERKNS_6HeaderE
libOpenEXR-3_0.so.29:_ZN7Imf_3_013worldToCameraERKNS_6HeaderE
libOpenEXR-3_0.so.29:_ZN7Imf_3_013worldToCameraERNS_6HeaderE
libOpenEXR-3_0.so.29:_ZN7Imf_3_014AcesOutputFile11writePixelsEi
libOpenEXR-3_0.so.29:_ZN7Imf_3_014AcesOutputFile14setFrameBufferEPKNS_4RgbaEmm
libOpenEXR-3_0.so.29:_ZN7Imf_3_014AcesOutputFile18updatePreviewImageEPKNS_11PreviewRgbaE
libOpenEXR-3_0.so.29:_ZN7Imf_3_014AcesOutputFileC1ERKNSt7__cxx1112basic_stringIcSt11char_traitsIcESaIcEEERKN9Imath_3_03BoxINS9_4Vec2IiEEEESF_NS_12RgbaChannelsEfNSB_IfEEfNS_9LineOrderENS_11CompressionEi
libOpenEXR-3_0.so.29:_ZN7Imf_3_014AcesOutputFileC1ERKNSt7__cxx1112basic_stringIcSt11char_traitsIcESaIcEEERKNS_6HeaderENS_12RgbaChannelsEi
libOpenEXR-3_0.so.29:_ZN7Imf_3_014AcesOutputFileC1ERKNSt7__cxx1112basic_stringIcSt11char_traitsIcESaIcEEEiiNS_12RgbaChannelsEfN9Imath_3_04Vec2IfEEfNS_9LineOrderENS_11CompressionEi
libOpenEXR-3_0.so.29:_ZN7Imf_3_014AcesOutputFileC1ERNS_7OStreamERKNS_6HeaderENS_12RgbaChannelsEi
libOpenEXR-3_0.so.29:_ZN7Imf_3_014AcesOutputFileC2ERKNSt7__cxx1112basic_stringIcSt11char_traitsIcESaIcEEERKN9Imath_3_03BoxINS9_4Vec2IiEEEESF_NS_12RgbaChannelsEfNSB_IfEEfNS_9LineOrderENS_11CompressionEi
libOpenEXR-3_0.so.29:_ZN7Imf_3_014AcesOutputFileC2ERKNSt7__cxx1112basic_stringIcSt11char_traitsIcESaIcEEERKNS_6HeaderENS_12RgbaChannelsEi
libOpenEXR-3_0.so.29:_ZN7Imf_3_014AcesOutputFileC2ERKNSt7__cxx1112basic_stringIcSt11char_traitsIcESaIcEEEiiNS_12RgbaChannelsEfN9Imath_3_04Vec2IfEEfNS_9LineOrderENS_11CompressionEi
libOpenEXR-3_0.so.29:_ZN7Imf_3_014AcesOutputFileC2ERNS_7OStreamERKNS_6HeaderENS_12RgbaChannelsEi
libOpenEXR-3_0.so.29:_ZN7Imf_3_014AcesOutputFileD0Ev
libOpenEXR-3_0.so.29:_ZN7Imf_3_014AcesOutputFileD1Ev
libOpenEXR-3_0.so.29:_ZN7Imf_3_014AcesOutputFileD2Ev
libOpenEXR-3_0.so.29:_ZN7Imf_3_014ChromaticitiesC1ERKN9Imath_3_04Vec2IfEES5_S5_S5_
libOpenEXR-3_0.so.29:_ZN7Imf_3_014ChromaticitiesC2ERKN9Imath_3_04Vec2IfEES5_S5_S5_
libOpenEXR-3_0.so.29:_ZN7Imf_3_014RgbaOutputFile11writePixelsEi
libOpenEXR-3_0.so.29:_ZN7Imf_3_014RgbaOutputFile13breakScanLineEiiic
libOpenEXR-3_0.so.29:_ZN7Imf_3_014RgbaOutputFile13setYCRoundingEjj
libOpenEXR-3_0.so.29:_ZN7Imf_3_014RgbaOutputFile14setFrameBufferEPKNS_4RgbaEmm
libOpenEXR-3_0.so.29:_ZN7Imf_3_014RgbaOutputFile18updatePreviewImageEPKNS_11PreviewRgbaE
libOpenEXR-3_0.so.29:_ZN7Imf_3_014RgbaOutputFileC1EPKcRKN9Imath_3_03BoxINS3_4Vec2IiEEEES9_NS_12RgbaChannelsEfNS5_IfEEfNS_9LineOrderENS_11CompressionEi
libOpenEXR-3_0.so.29:_ZN7Imf_3_014RgbaOutputFileC1EPKcRKNS_6HeaderENS_12RgbaChannelsEi
libOpenEXR-3_0.so.29:_ZN7Imf_3_014RgbaOutputFileC1EPKciiNS_12RgbaChannelsEfN9Imath_3_04Vec2IfEEfNS_9LineOrderENS_11CompressionEi
libOpenEXR-3_0.so.29:_ZN7Imf_3_014RgbaOutputFileC1ERNS_7OStreamERKNS_6HeaderENS_12RgbaChannelsEi
libOpenEXR-3_0.so.29:_ZN7Imf_3_014RgbaOutputFileC2EPKcRKN9Imath_3_03BoxINS3_4Vec2IiEEEES9_NS_12RgbaChannelsEfNS5_IfEEfNS_9LineOrderENS_11CompressionEi
libOpenEXR-3_0.so.29:_ZN7Imf_3_014RgbaOutputFileC2EPKcRKNS_6HeaderENS_12RgbaChannelsEi
libOpenEXR-3_0.so.29:_ZN7Imf_3_014RgbaOutputFileC2EPKciiNS_12RgbaChannelsEfN9Imath_3_04Vec2IfEEfNS_9LineOrderENS_11CompressionEi
libOpenEXR-3_0.so.29:_ZN7Imf_3_014RgbaOutputFileC2ERNS_7OStreamERKNS_6HeaderENS_12RgbaChannelsEi
libOpenEXR-3_0.so.29:_ZN7Imf_3_014RgbaOutputFileD0Ev
libOpenEXR-3_0.so.29:_ZN7Imf_3_014RgbaOutputFileD1Ev
libOpenEXR-3_0.so.29:_ZN7Imf_3_014RgbaOutputFileD2Ev
libOpenEXR-3_0.so.29:_ZN7Imf_3_014TiledInputFile11rawTileDataERiS1_S1_S1_RPKcS1_
libOpenEXR-3_0.so.29:_ZN7Imf_3_014TiledInputFile14setFrameBufferERKNS_11FrameBufferE
libOpenEXR-3_0.so.29:_ZN7Imf_3_014TiledInputFile8readTileEiii
libOpenEXR-3_0.so.29:_ZN7Imf_3_014TiledInputFile8readTileEiiii
libOpenEXR-3_0.so.29:_ZN7Imf_3_014TiledInputFile9readTilesEiiiii
libOpenEXR-3_0.so.29:_ZN7Imf_3_014TiledInputFile9readTilesEiiiiii
libOpenEXR-3_0.so.29:_ZN7Imf_3_014TiledInputFileC1EPKci
libOpenEXR-3_0.so.29:_ZN7Imf_3_014TiledInputFileC1ERNS_7IStreamEi
libOpenEXR-3_0.so.29:_ZN7Imf_3_014TiledInputFileC2EPKci
libOpenEXR-3_0.so.29:_ZN7Imf_3_014TiledInputFileC2ERNS_7IStreamEi
libOpenEXR-3_0.so.29:_ZN7Imf_3_014TiledInputFileD0Ev
libOpenEXR-3_0.so.29:_ZN7Imf_3_014TiledInputFileD1Ev
libOpenEXR-3_0.so.29:_ZN7Imf_3_014TiledInputFileD2Ev
libOpenEXR-3_0.so.29:_ZN7Imf_3_014TiledInputPart11rawTileDataERiS1_S1_S1_RPKcS1_
libOpenEXR-3_0.so.29:_ZN7Imf_3_014TiledInputPart14setFrameBufferERKNS_11FrameBufferE
libOpenEXR-3_0.so.29:_ZN7Imf_3_014TiledInputPart8readTileEiii
libOpenEXR-3_0.so.29:_ZN7Imf_3_014TiledInputPart8readTileEiiii
libOpenEXR-3_0.so.29:_ZN7Imf_3_014TiledInputPart9readTilesEiiiii
libOpenEXR-3_0.so.29:_ZN7Imf_3_014TiledInputPart9readTilesEiiiiii
libOpenEXR-3_0.so.29:_ZN7Imf_3_014TiledInputPartC1ERNS_18MultiPartInputFileEi
libOpenEXR-3_0.so.29:_ZN7Imf_3_014TiledInputPartC2ERNS_18MultiPartInputFileEi
libOpenEXR-3_0.so.29:_ZN7Imf_3_014TypedAttributeIN9Imath_3_03BoxINS1_4Vec2IfEEEEE13readValueFromERNS_7IStreamEii
libOpenEXR-3_0.so.29:_ZN7Imf_3_014TypedAttributeIN9Imath_3_03BoxINS1_4Vec2IfEEEEE14staticTypeNameEv
libOpenEXR-3_0.so.29:_ZN7Imf_3_014TypedAttributeIN9Imath_3_03BoxINS1_4Vec2IiEEEEE13readValueFromERNS_7IStreamEii
libOpenEXR-3_0.so.29:_ZN7Imf_3_014TypedAttributeIN9Imath_3_03BoxINS1_4Vec2IiEEEEE14staticTypeNameEv
libOpenEXR-3_0.so.29:_ZN7Imf_3_014TypedAttributeIN9Imath_3_04Vec2IdEEE13readValueFromERNS_7IStreamEii
libOpenEXR-3_0.so.29:_ZN7Imf_3_014TypedAttributeIN9Imath_3_04Vec2IdEEE14staticTypeNameEv
libOpenEXR-3_0.so.29:_ZN7Imf_3_014TypedAttributeIN9Imath_3_04Vec2IfEEE13readValueFromERNS_7IStreamEii
libOpenEXR-3_0.so.29:_ZN7Imf_3_014TypedAttributeIN9Imath_3_04Vec2IfEEE14staticTypeNameEv
libOpenEXR-3_0.so.29:_ZN7Imf_3_014TypedAttributeIN9Imath_3_04Vec2IiEEE13readValueFromERNS_7IStreamEii
libOpenEXR-3_0.so.29:_ZN7Imf_3_014TypedAttributeIN9Imath_3_04Vec2IiEEE14staticTypeNameEv
libOpenEXR-3_0.so.29:_ZN7Imf_3_014TypedAttributeIN9Imath_3_04Vec3IdEEE13readValueFromERNS_7IStreamEii
libOpenEXR-3_0.so.29:_ZN7Imf_3_014TypedAttributeIN9Imath_3_04Vec3IdEEE14staticTypeNameEv
libOpenEXR-3_0.so.29:_ZN7Imf_3_014TypedAttributeIN9Imath_3_04Vec3IfEEE13readValueFromERNS_7IStreamEii
libOpenEXR-3_0.so.29:_ZN7Imf_3_014TypedAttributeIN9Imath_3_04Vec3IfEEE14staticTypeNameEv
libOpenEXR-3_0.so.29:_ZN7Imf_3_014TypedAttributeIN9Imath_3_04Vec3IiEEE13readValueFromERNS_7IStreamEii
libOpenEXR-3_0.so.29:_ZN7Imf_3_014TypedAttributeIN9Imath_3_04Vec3IiEEE14staticTypeNameEv
libOpenEXR-3_0.so.29:_ZN7Imf_3_014TypedAttributeIN9Imath_3_08Matrix33IdEEE13readValueFromERNS_7IStreamEii
libOpenEXR-3_0.so.29:_ZN7Imf_3_014TypedAttributeIN9Imath_3_08Matrix33IdEEE14staticTypeNameEv
libOpenEXR-3_0.so.29:_ZN7Imf_3_014TypedAttributeIN9Imath_3_08Matrix33IfEEE13readValueFromERNS_7IStreamEii
libOpenEXR-3_0.so.29:_ZN7Imf_3_014TypedAttributeIN9Imath_3_08Matrix33IfEEE14staticTypeNameEv
libOpenEXR-3_0.so.29:_ZN7Imf_3_014TypedAttributeIN9Imath_3_08Matrix44IdEEE13readValueFromERNS_7IStreamEii
libOpenEXR-3_0.so.29:_ZN7Imf_3_014TypedAttributeIN9Imath_3_08Matrix44IdEEE14staticTypeNameEv
libOpenEXR-3_0.so.29:_ZN7Imf_3_014TypedAttributeIN9Imath_3_08Matrix44IfEEE13readValueFromERNS_7IStreamEii
libOpenEXR-3_0.so.29:_ZN7Imf_3_014TypedAttributeIN9Imath_3_08Matrix44IfEEE14staticTypeNameEv
libOpenEXR-3_0.so.29:_ZN7Imf_3_014TypedAttributeINS_11ChannelListEE13readValueFromERNS_7IStreamEii
libOpenEXR-3_0.so.29:_ZN7Imf_3_014TypedAttributeINS_11ChannelListEE14staticTypeNameEv
libOpenEXR-3_0.so.29:_ZN7Imf_3_014TypedAttributeINS_11CompressionEE13readValueFromERNS_7IStreamEii
libOpenEXR-3_0.so.29:_ZN7Imf_3_014TypedAttributeINS_11CompressionEE14staticTypeNameEv
libOpenEXR-3_0.so.29:_ZN7Imf_3_014TypedAttributeINS_12PreviewImageEE13readValueFromERNS_7IStreamEii
libOpenEXR-3_0.so.29:_ZN7Imf_3_014TypedAttributeINS_12PreviewImageEE14staticTypeNameEv
libOpenEXR-3_0.so.29:_ZN7Imf_3_014TypedAttributeINS_14ChromaticitiesEE13readValueFromERNS_7IStreamEii
libOpenEXR-3_0.so.29:_ZN7Imf_3_014TypedAttributeINS_14ChromaticitiesEE14staticTypeNameEv
libOpenEXR-3_0.so.29:_ZN7Imf_3_014TypedAttributeINS_14DeepImageStateEE13copyValueFromERKNS_9AttributeE
libOpenEXR-3_0.so.29:_ZN7Imf_3_014TypedAttributeINS_14DeepImageStateEE13readValueFromERNS_7IStreamEii
libOpenEXR-3_0.so.29:_ZN7Imf_3_014TypedAttributeINS_14DeepImageStateEE14staticTypeNameEv
libOpenEXR-3_0.so.29:_ZN7Imf_3_014TypedAttributeINS_15TileDescriptionEE13readValueFromERNS_7IStreamEii
libOpenEXR-3_0.so.29:_ZN7Imf_3_014TypedAttributeINS_15TileDescriptionEE14staticTypeNameEv
libOpenEXR-3_0.so.29:_ZN7Imf_3_014TypedAttributeINS_20CompressedIDManifestEE13readValueFromERNS_7IStreamEii
libOpenEXR-3_0.so.29:_ZN7Imf_3_014TypedAttributeINS_20CompressedIDManifestEE14staticTypeNameEv
libOpenEXR-3_0.so.29:_ZN7Imf_3_014TypedAttributeINS_6EnvmapEE13copyValueFromERKNS_9AttributeE
libOpenEXR-3_0.so.29:_ZN7Imf_3_014TypedAttributeINS_6EnvmapEE13readValueFromERNS_7IStreamEii
libOpenEXR-3_0.so.29:_ZN7Imf_3_014TypedAttributeINS_6EnvmapEE14staticTypeNameEv
libOpenEXR-3_0.so.29:_ZN7Imf_3_014TypedAttributeINS_7KeyCodeEE13readValueFromERNS_7IStreamEii
libOpenEXR-3_0.so.29:_ZN7Imf_3_014TypedAttributeINS_7KeyCodeEE14staticTypeNameEv
libOpenEXR-3_0.so.29:_ZN7Imf_3_014TypedAttributeINS_8RationalEE13readValueFromERNS_7IStreamEii
libOpenEXR-3_0.so.29:_ZN7Imf_3_014TypedAttributeINS_8RationalEE14staticTypeNameEv
libOpenEXR-3_0.so.29:_ZN7Imf_3_014TypedAttributeINS_8TimeCodeEE13readValueFromERNS_7IStreamEii
libOpenEXR-3_0.so.29:_ZN7Imf_3_014TypedAttributeINS_8TimeCodeEE14staticTypeNameEv
libOpenEXR-3_0.so.29:_ZN7Imf_3_014TypedAttributeINS_9LineOrderEE13readValueFromERNS_7IStreamEii
libOpenEXR-3_0.so.29:_ZN7Imf_3_014TypedAttributeINS_9LineOrderEE14staticTypeNameEv
libOpenEXR-3_0.so.29:_ZN7Imf_3_014TypedAttributeINSt7__cxx1112basic_stringIcSt11char_traitsIcESaIcEEEE13readValueFromERNS_7IStreamEii
libOpenEXR-3_0.so.29:_ZN7Imf_3_014TypedAttributeINSt7__cxx1112basic_stringIcSt11char_traitsIcESaIcEEEE14staticTypeNameEv
libOpenEXR-3_0.so.29:_ZN7Imf_3_014TypedAttributeISt6vectorINSt7__cxx1112basic_stringIcSt11char_traitsIcESaIcEEESaIS7_EEE13readValueFromERNS_7IStreamEii
libOpenEXR-3_0.so.29:_ZN7Imf_3_014TypedAttributeISt6vectorINSt7__cxx1112basic_stringIcSt11char_traitsIcESaIcEEESaIS7_EEE14staticTypeNameEv
libOpenEXR-3_0.so.29:_ZN7Imf_3_014TypedAttributeISt6vectorIfSaIfEEE13readValueFromERNS_7IStreamEii
libOpenEXR-3_0.so.29:_ZN7Imf_3_014TypedAttributeISt6vectorIfSaIfEEE14staticTypeNameEv
libOpenEXR-3_0.so.29:_ZN7Imf_3_014TypedAttributeIdE14staticTypeNameEv
libOpenEXR-3_0.so.29:_ZN7Imf_3_014TypedAttributeIfE14staticTypeNameEv
libOpenEXR-3_0.so.29:_ZN7Imf_3_014TypedAttributeIiE14staticTypeNameEv
libOpenEXR-3_0.so.29:_ZN7Imf_3_014adoptedNeutralERKNS_6HeaderE
libOpenEXR-3_0.so.29:_ZN7Imf_3_014adoptedNeutralERNS_6HeaderE
libOpenEXR-3_0.so.29:_ZN7Imf_3_014channelsInViewERKNSt7__cxx1112basic_stringIcSt11char_traitsIcESaIcEEERKNS_11ChannelListERKSt6vectorIS5_SaIS5_EE
libOpenEXR-3_0.so.29:_ZN7Imf_3_014chromaticitiesERKNS_6HeaderE
libOpenEXR-3_0.so.29:_ZN7Imf_3_014chromaticitiesERNS_6HeaderE
libOpenEXR-3_0.so.29:_ZN7Imf_3_014convertInPlaceERPcRPKcNS_9PixelTypeEm
libOpenEXR-3_0.so.29:_ZN7Imf_3_014deepImageStateERKNS_6HeaderE
libOpenEXR-3_0.so.29:_ZN7Imf_3_014deepImageStateERNS_6HeaderE
libOpenEXR-3_0.so.29:_ZN7Imf_3_014focusAttributeERKNS_6HeaderE
libOpenEXR-3_0.so.29:_ZN7Imf_3_014focusAttributeERNS_6HeaderE
libOpenEXR-3_0.so.29:_ZN7Imf_3_014insertViewNameERKNSt7__cxx1112basic_stringIcSt11char_traitsIcESaIcEEERKSt6vectorIS5_SaIS5_EEi
libOpenEXR-3_0.so.29:_ZN7Imf_3_014lineBufferMaxYEiii
libOpenEXR-3_0.so.29:_ZN7Imf_3_014lineBufferMinYEiii
libOpenEXR-3_0.so.29:_ZN7Imf_3_014ownerAttributeB5cxx11ERKNS_6HeaderE
libOpenEXR-3_0.so.29:_ZN7Imf_3_014ownerAttributeB5cxx11ERNS_6HeaderE
libOpenEXR-3_0.so.29:_ZN7Imf_3_014removeViewNameERKNSt7__cxx1112basic_stringIcSt11char_traitsIcESaIcEEES7_
libOpenEXR-3_0.so.29:_ZN7Imf_3_014whiteLuminanceERKNS_6HeaderE
libOpenEXR-3_0.so.29:_ZN7Imf_3_014whiteLuminanceERNS_6HeaderE
libOpenEXR-3_0.so.29:_ZN7Imf_3_015DeepCompositing15composite_pixelEPfPPKfPPKciii
libOpenEXR-3_0.so.29:_ZN7Imf_3_015DeepCompositing4sortEPiPPKfPPKciii
libOpenEXR-3_0.so.29:_ZN7Imf_3_015DeepCompositingC1Ev
libOpenEXR-3_0.so.29:_ZN7Imf_3_015DeepCompositingC2Ev
libOpenEXR-3_0.so.29:_ZN7Imf_3_015DeepCompositingD0Ev
libOpenEXR-3_0.so.29:_ZN7Imf_3_015DeepCompositingD1Ev
libOpenEXR-3_0.so.29:_ZN7Imf_3_015DeepCompositingD2Ev
libOpenEXR-3_0.so.29:_ZN7Imf_3_015DeepFrameBuffer22insertSampleCountSliceERKNS_5SliceE
libOpenEXR-3_0.so.29:_ZN7Imf_3_015DeepFrameBuffer3endEv
libOpenEXR-3_0.so.29:_ZN7Imf_3_015DeepFrameBuffer4findEPKc
libOpenEXR-3_0.so.29:_ZN7Imf_3_015DeepFrameBuffer4findERKNSt7__cxx1112basic_stringIcSt11char_traitsIcESaIcEEE
libOpenEXR-3_0.so.29:_ZN7Imf_3_015DeepFrameBuffer5beginEv
libOpenEXR-3_0.so.29:_ZN7Imf_3_015DeepFrameBuffer6insertEPKcRKNS_9DeepSliceE
libOpenEXR-3_0.so.29:_ZN7Imf_3_015DeepFrameBuffer6insertERKNSt7__cxx1112basic_stringIcSt11char_traitsIcESaIcEEERKNS_9DeepSliceE
libOpenEXR-3_0.so.29:_ZN7Imf_3_015DeepFrameBuffer9findSliceEPKc
libOpenEXR-3_0.so.29:_ZN7Imf_3_015DeepFrameBuffer9findSliceERKNSt7__cxx1112basic_stringIcSt11char_traitsIcESaIcEEE
libOpenEXR-3_0.so.29:_ZN7Imf_3_015DeepFrameBufferixEPKc
libOpenEXR-3_0.so.29:_ZN7Imf_3_015DeepFrameBufferixERKNSt7__cxx1112basic_stringIcSt11char_traitsIcESaIcEEE
libOpenEXR-3_0.so.29:_ZN7Imf_3_015OpaqueAttribute13copyValueFromERKNS_9AttributeE
libOpenEXR-3_0.so.29:_ZN7Imf_3_015OpaqueAttribute13readValueFromERNS_7IStreamEii
libOpenEXR-3_0.so.29:_ZN7Imf_3_015OpaqueAttributeC1EPKc
libOpenEXR-3_0.so.29:_ZN7Imf_3_015OpaqueAttributeC1ERKS0_
libOpenEXR-3_0.so.29:_ZN7Imf_3_015OpaqueAttributeC2EPKc
libOpenEXR-3_0.so.29:_ZN7Imf_3_015OpaqueAttributeC2ERKS0_
libOpenEXR-3_0.so.29:_ZN7Imf_3_015OpaqueAttributeD0Ev
libOpenEXR-3_0.so.29:_ZN7Imf_3_015OpaqueAttributeD1Ev
libOpenEXR-3_0.so.29:_ZN7Imf_3_015OpaqueAttributeD2Ev
libOpenEXR-3_0.so.29:_ZN7Imf_3_015TiledOutputFile10copyPixelsERNS_14TiledInputFileE
libOpenEXR-3_0.so.29:_ZN7Imf_3_015TiledOutputFile10copyPixelsERNS_14TiledInputPartE
libOpenEXR-3_0.so.29:_ZN7Imf_3_015TiledOutputFile10copyPixelsERNS_9InputFileE
libOpenEXR-3_0.so.29:_ZN7Imf_3_015TiledOutputFile10copyPixelsERNS_9InputPartE
libOpenEXR-3_0.so.29:_ZN7Imf_3_015TiledOutputFile10writeTilesEiiiii
libOpenEXR-3_0.so.29:_ZN7Imf_3_015TiledOutputFile10writeTilesEiiiiii
libOpenEXR-3_0.so.29:_ZN7Imf_3_015TiledOutputFile14setFrameBufferERKNS_11FrameBufferE
libOpenEXR-3_0.so.29:_ZN7Imf_3_015TiledOutputFile18updatePreviewImageEPKNS_11PreviewRgbaE
libOpenEXR-3_0.so.29:_ZN7Imf_3_015TiledOutputFile9breakTileEiiiiiic
libOpenEXR-3_0.so.29:_ZN7Imf_3_015TiledOutputFile9writeTileEiii
libOpenEXR-3_0.so.29:_ZN7Imf_3_015TiledOutputFile9writeTileEiiii
libOpenEXR-3_0.so.29:_ZN7Imf_3_015TiledOutputFileC1EPKcRKNS_6HeaderEi
libOpenEXR-3_0.so.29:_ZN7Imf_3_015TiledOutputFileC1ERNS_7OStreamERKNS_6HeaderEi
libOpenEXR-3_0.so.29:_ZN7Imf_3_015TiledOutputFileC2EPKcRKNS_6HeaderEi
libOpenEXR-3_0.so.29:_ZN7Imf_3_015TiledOutputFileC2ERNS_7OStreamERKNS_6HeaderEi
libOpenEXR-3_0.so.29:_ZN7Imf_3_015TiledOutputFileD0Ev
libOpenEXR-3_0.so.29:_ZN7Imf_3_015TiledOutputFileD1Ev
libOpenEXR-3_0.so.29:_ZN7Imf_3_015TiledOutputFileD2Ev
libOpenEXR-3_0.so.29:_ZN7Imf_3_015TiledOutputPart10copyPixelsERNS_14TiledInputFileE
libOpenEXR-3_0.so.29:_ZN7Imf_3_015TiledOutputPart10copyPixelsERNS_14TiledInputPartE
libOpenEXR-3_0.so.29:_ZN7Imf_3_015TiledOutputPart10copyPixelsERNS_9InputFileE
libOpenEXR-3_0.so.29:_ZN7Imf_3_015TiledOutputPart10copyPixelsERNS_9InputPartE
libOpenEXR-3_0.so.29:_ZN7Imf_3_015TiledOutputPart10writeTilesEiiiii
libOpenEXR-3_0.so.29:_ZN7Imf_3_015TiledOutputPart10writeTilesEiiiiii
libOpenEXR-3_0.so.29:_ZN7Imf_3_015TiledOutputPart14setFrameBufferERKNS_11FrameBufferE
libOpenEXR-3_0.so.29:_ZN7Imf_3_015TiledOutputPart18updatePreviewImageEPKNS_11PreviewRgbaE
libOpenEXR-3_0.so.29:_ZN7Imf_3_015TiledOutputPart9breakTileEiiiiiic
libOpenEXR-3_0.so.29:_ZN7Imf_3_015TiledOutputPart9writeTileEiii
libOpenEXR-3_0.so.29:_ZN7Imf_3_015TiledOutputPart9writeTileEiiii
libOpenEXR-3_0.so.29:_ZN7Imf_3_015TiledOutputPartC1ERNS_19MultiPartOutputFileEi
libOpenEXR-3_0.so.29:_ZN7Imf_3_015TiledOutputPartC2ERNS_19MultiPartOutputFileEi
libOpenEXR-3_0.so.29:_ZN7Imf_3_015areCounterpartsERKNSt7__cxx1112basic_stringIcSt11char_traitsIcESaIcEEES7_RKSt6vectorIS5_SaIS5_EE
libOpenEXR-3_0.so.29:_ZN7Imf_3_015defaultViewNameERKSt6vectorINSt7__cxx1112basic_stringIcSt11char_traitsIcESaIcEEESaIS6_EE
libOpenEXR-3_0.so.29:_ZN7Imf_3_015envmapAttributeERKNS_6HeaderE
libOpenEXR-3_0.so.29:_ZN7Imf_3_015envmapAttributeERNS_6HeaderE
libOpenEXR-3_0.so.29:_ZN7Imf_3_015framesPerSecondERKNS_6HeaderE
libOpenEXR-3_0.so.29:_ZN7Imf_3_015framesPerSecondERNS_6HeaderE
libOpenEXR-3_0.so.29:_ZN7Imf_3_015isSupportedTypeERKNSt7__cxx1112basic_stringIcSt11char_traitsIcESaIcEEE
libOpenEXR-3_0.so.29:_ZN7Imf_3_016GenericInputFile30readMagicNumberAndVersionFieldERNS_7IStreamERi
libOpenEXR-3_0.so.29:_ZN7Imf_3_016GenericInputFileC1Ev
libOpenEXR-3_0.so.29:_ZN7Imf_3_016GenericInputFileC2Ev
libOpenEXR-3_0.so.29:_ZN7Imf_3_016GenericInputFileD0Ev
libOpenEXR-3_0.so.29:_ZN7Imf_3_016GenericInputFileD1Ev
libOpenEXR-3_0.so.29:_ZN7Imf_3_016GenericInputFileD2Ev
libOpenEXR-3_0.so.29:_ZN7Imf_3_016addWorldToCameraERNS_6HeaderERKN9Imath_3_08Matrix44IfEE
libOpenEXR-3_0.so.29:_ZN7Imf_3_016capDateAttributeB5cxx11ERKNS_6HeaderE
libOpenEXR-3_0.so.29:_ZN7Imf_3_016capDateAttributeB5cxx11ERNS_6HeaderE
libOpenEXR-3_0.so.29:_ZN7Imf_3_016channelsInNoViewERKNS_11ChannelListERKSt6vectorINSt7__cxx1112basic_stringIcSt11char_traitsIcESaIcEEESaIS9_EE
libOpenEXR-3_0.so.29:_ZN7Imf_3_016expTimeAttributeERKNS_6HeaderE
libOpenEXR-3_0.so.29:_ZN7Imf_3_016expTimeAttributeERNS_6HeaderE
libOpenEXR-3_0.so.29:_ZN7Imf_3_016hasWorldToCameraERKNS_6HeaderE
libOpenEXR-3_0.so.29:_ZN7Imf_3_016keyCodeAttributeERKNS_6HeaderE
libOpenEXR-3_0.so.29:_ZN7Imf_3_016keyCodeAttributeERNS_6HeaderE
libOpenEXR-3_0.so.29:_ZN7Imf_3_016lookModTransformB5cxx11ERKNS_6HeaderE
libOpenEXR-3_0.so.29:_ZN7Imf_3_016lookModTransformB5cxx11ERNS_6HeaderE
libOpenEXR-3_0.so.29:_ZN7Imf_3_016numLinesInBufferENS_11CompressionE
libOpenEXR-3_0.so.29:_ZN7Imf_3_016numLinesInBufferEPNS_10CompressorE
libOpenEXR-3_0.so.29:_ZN7Imf_3_016staticInitializeEv
libOpenEXR-3_0.so.29:_ZN7Imf_3_017GenericOutputFile31writeMagicNumberAndVersionFieldERNS_7OStreamEPKNS_6HeaderEi
libOpenEXR-3_0.so.29:_ZN7Imf_3_017GenericOutputFile31writeMagicNumberAndVersionFieldERNS_7OStreamERKNS_6HeaderE
libOpenEXR-3_0.so.29:_ZN7Imf_3_017GenericOutputFileC1Ev
libOpenEXR-3_0.so.29:_ZN7Imf_3_017GenericOutputFileC2Ev
libOpenEXR-3_0.so.29:_ZN7Imf_3_017GenericOutputFileD0Ev
libOpenEXR-3_0.so.29:_ZN7Imf_3_017GenericOutputFileD1Ev
libOpenEXR-3_0.so.29:_ZN7Imf_3_017GenericOutputFileD2Ev
libOpenEXR-3_0.so.29:_ZN7Imf_3_017ScanLineInputFile10readPixelsEi
libOpenEXR-3_0.so.29:_ZN7Imf_3_017ScanLineInputFile10readPixelsEii
libOpenEXR-3_0.so.29:_ZN7Imf_3_017ScanLineInputFile12rawPixelDataEiRPKcRi
libOpenEXR-3_0.so.29:_ZN7Imf_3_017ScanLineInputFile14setFrameBufferERKNS_11FrameBufferE
libOpenEXR-3_0.so.29:_ZN7Imf_3_017ScanLineInputFileC1ERKNS_6HeaderEPNS_7IStreamEi
libOpenEXR-3_0.so.29:_ZN7Imf_3_017ScanLineInputFileC2ERKNS_6HeaderEPNS_7IStreamEi
libOpenEXR-3_0.so.29:_ZN7Imf_3_017ScanLineInputFileD0Ev
libOpenEXR-3_0.so.29:_ZN7Imf_3_017ScanLineInputFileD1Ev
libOpenEXR-3_0.so.29:_ZN7Imf_3_017ScanLineInputFileD2Ev
libOpenEXR-3_0.so.29:_ZN7Imf_3_017addAdoptedNeutralERNS_6HeaderERKN9Imath_3_04Vec2IfEE
libOpenEXR-3_0.so.29:_ZN7Imf_3_017addChromaticitiesERNS_6HeaderERKNS_14ChromaticitiesE
libOpenEXR-3_0.so.29:_ZN7Imf_3_017addDeepImageStateERNS_6HeaderERKNS_14DeepImageStateE
libOpenEXR-3_0.so.29:_ZN7Imf_3_017addWhiteLuminanceERNS_6HeaderERKf
libOpenEXR-3_0.so.29:_ZN7Imf_3_017altitudeAttributeERKNS_6HeaderE
libOpenEXR-3_0.so.29:_ZN7Imf_3_017altitudeAttributeERNS_6HeaderE
libOpenEXR-3_0.so.29:_ZN7Imf_3_017apertureAttributeERKNS_6HeaderE
libOpenEXR-3_0.so.29:_ZN7Imf_3_017apertureAttributeERNS_6HeaderE
libOpenEXR-3_0.so.29:_ZN7Imf_3_017bytesPerLineTableERKNS_6HeaderERSt6vectorImSaImEE
libOpenEXR-3_0.so.29:_ZN7Imf_3_017channelInAllViewsERKNSt7__cxx1112basic_stringIcSt11char_traitsIcESaIcEEERKNS_11ChannelListERKSt6vectorIS5_SaIS5_EE
libOpenEXR-3_0.so.29:_ZN7Imf_3_017commentsAttributeB5cxx11ERKNS_6HeaderE
libOpenEXR-3_0.so.29:_ZN7Imf_3_017commentsAttributeB5cxx11ERNS_6HeaderE
libOpenEXR-3_0.so.29:_ZN7Imf_3_017dataWindowForTileERKNS_15TileDescriptionEiiiiiiii
libOpenEXR-3_0.so.29:_ZN7Imf_3_017globalThreadCountEv
libOpenEXR-3_0.so.29:_ZN7Imf_3_017hasAdoptedNeutralERKNS_6HeaderE
libOpenEXR-3_0.so.29:_ZN7Imf_3_017hasChromaticitiesERKNS_6HeaderE
libOpenEXR-3_0.so.29:_ZN7Imf_3_017hasDeepImageStateERKNS_6HeaderE
libOpenEXR-3_0.so.29:_ZN7Imf_3_017hasWhiteLuminanceERKNS_6HeaderE
libOpenEXR-3_0.so.29:_ZN7Imf_3_017isDeepOpenExrFileEPKc
libOpenEXR-3_0.so.29:_ZN7Imf_3_017isDeepOpenExrFileERNS_7IStreamE
libOpenEXR-3_0.so.29:_ZN7Imf_3_017isoSpeedAttributeERKNS_6HeaderE
libOpenEXR-3_0.so.29:_ZN7Imf_3_017isoSpeedAttributeERNS_6HeaderE
libOpenEXR-3_0.so.29:_ZN7Imf_3_017latitudeAttributeERKNS_6HeaderE
libOpenEXR-3_0.so.29:_ZN7Imf_3_017latitudeAttributeERNS_6HeaderE
libOpenEXR-3_0.so.29:_ZN7Imf_3_017newTileCompressorENS_11CompressionEmmRKNS_6HeaderE
libOpenEXR-3_0.so.29:_ZN7Imf_3_017timeCodeAttributeERKNS_6HeaderE
libOpenEXR-3_0.so.29:_ZN7Imf_3_017timeCodeAttributeERNS_6HeaderE
libOpenEXR-3_0.so.29:_ZN7Imf_3_017xDensityAttributeERKNS_6HeaderE
libOpenEXR-3_0.so.29:_ZN7Imf_3_017xDensityAttributeERNS_6HeaderE
libOpenEXR-3_0.so.29:_ZN7Imf_3_018DeepTiledInputFile10initializeEv
libOpenEXR-3_0.so.29:_ZN7Imf_3_018DeepTiledInputFile14setFrameBufferERKNS_15DeepFrameBufferE
libOpenEXR-3_0.so.29:_ZN7Imf_3_018DeepTiledInputFile19multiPartInitializeEPNS_13InputPartDataE
libOpenEXR-3_0.so.29:_ZN7Imf_3_018DeepTiledInputFile20readPixelSampleCountEiii
libOpenEXR-3_0.so.29:_ZN7Imf_3_018DeepTiledInputFile20readPixelSampleCountEiiii
libOpenEXR-3_0.so.29:_ZN7Imf_3_018DeepTiledInputFile21readPixelSampleCountsEiiiii
libOpenEXR-3_0.so.29:_ZN7Imf_3_018DeepTiledInputFile21readPixelSampleCountsEiiiiii
libOpenEXR-3_0.so.29:_ZN7Imf_3_018DeepTiledInputFile23compatibilityInitializeERNS_7IStreamE
libOpenEXR-3_0.so.29:_ZN7Imf_3_018DeepTiledInputFile4Data14getSampleCountEii
libOpenEXR-3_0.so.29:_ZN7Imf_3_018DeepTiledInputFile4Data18validateStreamSizeEv
libOpenEXR-3_0.so.29:_ZN7Imf_3_018DeepTiledInputFile4DataC1Ei
libOpenEXR-3_0.so.29:_ZN7Imf_3_018DeepTiledInputFile4DataC2Ei
libOpenEXR-3_0.so.29:_ZN7Imf_3_018DeepTiledInputFile4DataD1Ev
libOpenEXR-3_0.so.29:_ZN7Imf_3_018DeepTiledInputFile4DataD2Ev
libOpenEXR-3_0.so.29:_ZN7Imf_3_018DeepTiledInputFile8readTileEiii
libOpenEXR-3_0.so.29:_ZN7Imf_3_018DeepTiledInputFile8readTileEiiii
libOpenEXR-3_0.so.29:_ZN7Imf_3_018DeepTiledInputFile9readTilesEiiiii
libOpenEXR-3_0.so.29:_ZN7Imf_3_018DeepTiledInputFile9readTilesEiiiiii
libOpenEXR-3_0.so.29:_ZN7Imf_3_018DeepTiledInputFileC1EPKci
libOpenEXR-3_0.so.29:_ZN7Imf_3_018DeepTiledInputFileC1EPNS_13InputPartDataE
libOpenEXR-3_0.so.29:_ZN7Imf_3_018DeepTiledInputFileC1ERKNS_6HeaderEPNS_7IStreamEii
libOpenEXR-3_0.so.29:_ZN7Imf_3_018DeepTiledInputFileC1ERNS_7IStreamEi
libOpenEXR-3_0.so.29:_ZN7Imf_3_018DeepTiledInputFileC2EPKci
libOpenEXR-3_0.so.29:_ZN7Imf_3_018DeepTiledInputFileC2EPNS_13InputPartDataE
libOpenEXR-3_0.so.29:_ZN7Imf_3_018DeepTiledInputFileC2ERKNS_6HeaderEPNS_7IStreamEii
libOpenEXR-3_0.so.29:_ZN7Imf_3_018DeepTiledInputFileC2ERNS_7IStreamEi
libOpenEXR-3_0.so.29:_ZN7Imf_3_018DeepTiledInputFileD0Ev
libOpenEXR-3_0.so.29:_ZN7Imf_3_018DeepTiledInputFileD1Ev
libOpenEXR-3_0.so.29:_ZN7Imf_3_018DeepTiledInputFileD2Ev
libOpenEXR-3_0.so.29:_ZN7Imf_3_018DeepTiledInputPart14setFrameBufferERKNS_15DeepFrameBufferE
libOpenEXR-3_0.so.29:_ZN7Imf_3_018DeepTiledInputPart20readPixelSampleCountEiii
libOpenEXR-3_0.so.29:_ZN7Imf_3_018DeepTiledInputPart20readPixelSampleCountEiiii
libOpenEXR-3_0.so.29:_ZN7Imf_3_018DeepTiledInputPart21readPixelSampleCountsEiiiii
libOpenEXR-3_0.so.29:_ZN7Imf_3_018DeepTiledInputPart21readPixelSampleCountsEiiiiii
libOpenEXR-3_0.so.29:_ZN7Imf_3_018DeepTiledInputPart8readTileEiii
libOpenEXR-3_0.so.29:_ZN7Imf_3_018DeepTiledInputPart8readTileEiiii
libOpenEXR-3_0.so.29:_ZN7Imf_3_018DeepTiledInputPart9readTilesEiiiii
libOpenEXR-3_0.so.29:_ZN7Imf_3_018DeepTiledInputPart9readTilesEiiiiii
libOpenEXR-3_0.so.29:_ZN7Imf_3_018DeepTiledInputPartC1ERNS_18MultiPartInputFileEi
libOpenEXR-3_0.so.29:_ZN7Imf_3_018DeepTiledInputPartC2ERNS_18MultiPartInputFileEi
libOpenEXR-3_0.so.29:_ZN7Imf_3_018MultiPartInputFile14flushPartCacheEv
libOpenEXR-3_0.so.29:_ZN7Imf_3_018MultiPartInputFileC1EPKcib
libOpenEXR-3_0.so.29:_ZN7Imf_3_018MultiPartInputFileC1ERNS_7IStreamEib
libOpenEXR-3_0.so.29:_ZN7Imf_3_018MultiPartInputFileC2EPKcib
libOpenEXR-3_0.so.29:_ZN7Imf_3_018MultiPartInputFileC2ERNS_7IStreamEib
libOpenEXR-3_0.so.29:_ZN7Imf_3_018MultiPartInputFileD0Ev
libOpenEXR-3_0.so.29:_ZN7Imf_3_018MultiPartInputFileD1Ev
libOpenEXR-3_0.so.29:_ZN7Imf_3_018MultiPartInputFileD2Ev
libOpenEXR-3_0.so.29:_ZN7Imf_3_018TiledRgbaInputFile12setLayerNameERKNSt7__cxx1112basic_stringIcSt11char_traitsIcESaIcEEE
libOpenEXR-3_0.so.29:_ZN7Imf_3_018TiledRgbaInputFile14setFrameBufferEPNS_4RgbaEmm
libOpenEXR-3_0.so.29:_ZN7Imf_3_018TiledRgbaInputFile6FromYa14setFrameBufferEPNS_4RgbaEmmRKNSt7__cxx1112basic_stringIcSt11char_traitsIcESaIcEEE
libOpenEXR-3_0.so.29:_ZN7Imf_3_018TiledRgbaInputFile6FromYa8readTileEiiii
libOpenEXR-3_0.so.29:_ZN7Imf_3_018TiledRgbaInputFile6FromYaC1ERNS_14TiledInputFileE
libOpenEXR-3_0.so.29:_ZN7Imf_3_018TiledRgbaInputFile6FromYaC2ERNS_14TiledInputFileE
libOpenEXR-3_0.so.29:_ZN7Imf_3_018TiledRgbaInputFile8readTileEiii
libOpenEXR-3_0.so.29:_ZN7Imf_3_018TiledRgbaInputFile8readTileEiiii
libOpenEXR-3_0.so.29:_ZN7Imf_3_018TiledRgbaInputFile9readTilesEiiiii
libOpenEXR-3_0.so.29:_ZN7Imf_3_018TiledRgbaInputFile9readTilesEiiiiii
libOpenEXR-3_0.so.29:_ZN7Imf_3_018TiledRgbaInputFileC1EPKcRKNSt7__cxx1112basic_stringIcSt11char_traitsIcESaIcEEEi
libOpenEXR-3_0.so.29:_ZN7Imf_3_018TiledRgbaInputFileC1EPKci
libOpenEXR-3_0.so.29:_ZN7Imf_3_018TiledRgbaInputFileC1ERNS_7IStreamERKNSt7__cxx1112basic_stringIcSt11char_traitsIcESaIcEEEi
libOpenEXR-3_0.so.29:_ZN7Imf_3_018TiledRgbaInputFileC1ERNS_7IStreamEi
libOpenEXR-3_0.so.29:_ZN7Imf_3_018TiledRgbaInputFileC2EPKcRKNSt7__cxx1112basic_stringIcSt11char_traitsIcESaIcEEEi
libOpenEXR-3_0.so.29:_ZN7Imf_3_018TiledRgbaInputFileC2EPKci
libOpenEXR-3_0.so.29:_ZN7Imf_3_018TiledRgbaInputFileC2ERNS_7IStreamERKNSt7__cxx1112basic_stringIcSt11char_traitsIcESaIcEEEi
libOpenEXR-3_0.so.29:_ZN7Imf_3_018TiledRgbaInputFileC2ERNS_7IStreamEi
libOpenEXR-3_0.so.29:_ZN7Imf_3_018TiledRgbaInputFileD0Ev
libOpenEXR-3_0.so.29:_ZN7Imf_3_018TiledRgbaInputFileD1Ev
libOpenEXR-3_0.so.29:_ZN7Imf_3_018TiledRgbaInputFileD2Ev
libOpenEXR-3_0.so.29:_ZN7Imf_3_018addFramesPerSecondERNS_6HeaderERKNS_8RationalE
libOpenEXR-3_0.so.29:_ZN7Imf_3_018channelInOtherViewERKNSt7__cxx1112basic_stringIcSt11char_traitsIcESaIcEEERKNS_11ChannelListERKSt6vectorIS5_SaIS5_EES7_
libOpenEXR-3_0.so.29:_ZN7Imf_3_018dataWindowForLevelERKNS_15TileDescriptionEiiiiii
libOpenEXR-3_0.so.29:_ZN7Imf_3_018hasFramesPerSecondERKNS_6HeaderE
libOpenEXR-3_0.so.29:_ZN7Imf_3_018isLossyCompressionENS_11CompressionE
libOpenEXR-3_0.so.29:_ZN7Imf_3_018isTiledOpenExrFileEPKc
libOpenEXR-3_0.so.29:_ZN7Imf_3_018isTiledOpenExrFileERNS_7IStreamE
libOpenEXR-3_0.so.29:_ZN7Imf_3_018isValidCompressionENS_11CompressionE
libOpenEXR-3_0.so.29:_ZN7Imf_3_018longitudeAttributeERKNS_6HeaderE
libOpenEXR-3_0.so.29:_ZN7Imf_3_018longitudeAttributeERNS_6HeaderE
libOpenEXR-3_0.so.29:_ZN7Imf_3_018multiViewAttributeB5cxx11ERKNS_6HeaderE
libOpenEXR-3_0.so.29:_ZN7Imf_3_018multiViewAttributeB5cxx11ERNS_6HeaderE
libOpenEXR-3_0.so.29:_ZN7Imf_3_018originalDataWindowERKNS_6HeaderE
libOpenEXR-3_0.so.29:_ZN7Imf_3_018originalDataWindowERNS_6HeaderE
libOpenEXR-3_0.so.29:_ZN7Imf_3_018renderingTransformB5cxx11ERKNS_6HeaderE
libOpenEXR-3_0.so.29:_ZN7Imf_3_018renderingTransformB5cxx11ERNS_6HeaderE
libOpenEXR-3_0.so.29:_ZN7Imf_3_018utcOffsetAttributeERKNS_6HeaderE
libOpenEXR-3_0.so.29:_ZN7Imf_3_018utcOffsetAttributeERNS_6HeaderE
libOpenEXR-3_0.so.29:_ZN7Imf_3_018wrapmodesAttributeB5cxx11ERKNS_6HeaderE
libOpenEXR-3_0.so.29:_ZN7Imf_3_018wrapmodesAttributeB5cxx11ERNS_6HeaderE
libOpenEXR-3_0.so.29:_ZN7Imf_3_019DeepTiledOutputFile10copyPixelsERNS_18DeepTiledInputFileE
libOpenEXR-3_0.so.29:_ZN7Imf_3_019DeepTiledOutputFile10copyPixelsERNS_18DeepTiledInputPartE
libOpenEXR-3_0.so.29:_ZN7Imf_3_019DeepTiledOutputFile10initializeERKNS_6HeaderE
libOpenEXR-3_0.so.29:_ZN7Imf_3_019DeepTiledOutputFile10writeTilesEiiiii
libOpenEXR-3_0.so.29:_ZN7Imf_3_019DeepTiledOutputFile10writeTilesEiiiiii
libOpenEXR-3_0.so.29:_ZN7Imf_3_019DeepTiledOutputFile14setFrameBufferERKNS_15DeepFrameBufferE
libOpenEXR-3_0.so.29:_ZN7Imf_3_019DeepTiledOutputFile18updatePreviewImageEPKNS_11PreviewRgbaE
libOpenEXR-3_0.so.29:_ZN7Imf_3_019DeepTiledOutputFile4Data14getSampleCountEii
libOpenEXR-3_0.so.29:_ZN7Imf_3_019DeepTiledOutputFile4DataC1Ei
libOpenEXR-3_0.so.29:_ZN7Imf_3_019DeepTiledOutputFile4DataC2Ei
libOpenEXR-3_0.so.29:_ZN7Imf_3_019DeepTiledOutputFile4DataD1Ev
libOpenEXR-3_0.so.29:_ZN7Imf_3_019DeepTiledOutputFile4DataD2Ev
libOpenEXR-3_0.so.29:_ZN7Imf_3_019DeepTiledOutputFile9breakTileEiiiiiic
libOpenEXR-3_0.so.29:_ZN7Imf_3_019DeepTiledOutputFile9writeTileEiii
libOpenEXR-3_0.so.29:_ZN7Imf_3_019DeepTiledOutputFile9writeTileEiiii
libOpenEXR-3_0.so.29:_ZN7Imf_3_019DeepTiledOutputFileC1EPKNS_14OutputPartDataE
libOpenEXR-3_0.so.29:_ZN7Imf_3_019DeepTiledOutputFileC1EPKcRKNS_6HeaderEi
libOpenEXR-3_0.so.29:_ZN7Imf_3_019DeepTiledOutputFileC1ERNS_7OStreamERKNS_6HeaderEi
libOpenEXR-3_0.so.29:_ZN7Imf_3_019DeepTiledOutputFileC2EPKNS_14OutputPartDataE
libOpenEXR-3_0.so.29:_ZN7Imf_3_019DeepTiledOutputFileC2EPKcRKNS_6HeaderEi
libOpenEXR-3_0.so.29:_ZN7Imf_3_019DeepTiledOutputFileC2ERNS_7OStreamERKNS_6HeaderEi
libOpenEXR-3_0.so.29:_ZN7Imf_3_019DeepTiledOutputFileD0Ev
libOpenEXR-3_0.so.29:_ZN7Imf_3_019DeepTiledOutputFileD1Ev
libOpenEXR-3_0.so.29:_ZN7Imf_3_019DeepTiledOutputFileD2Ev
libOpenEXR-3_0.so.29:_ZN7Imf_3_019DeepTiledOutputPart10copyPixelsERNS_18DeepTiledInputFileE
libOpenEXR-3_0.so.29:_ZN7Imf_3_019DeepTiledOutputPart10copyPixelsERNS_18DeepTiledInputPartE
libOpenEXR-3_0.so.29:_ZN7Imf_3_019DeepTiledOutputPart10writeTilesEiiiii
libOpenEXR-3_0.so.29:_ZN7Imf_3_019DeepTiledOutputPart10writeTilesEiiiiii
libOpenEXR-3_0.so.29:_ZN7Imf_3_019DeepTiledOutputPart14setFrameBufferERKNS_15DeepFrameBufferE
libOpenEXR-3_0.so.29:_ZN7Imf_3_019DeepTiledOutputPart18updatePreviewImageEPKNS_11PreviewRgbaE
libOpenEXR-3_0.so.29:_ZN7Imf_3_019DeepTiledOutputPart9breakTileEiiiiiic
libOpenEXR-3_0.so.29:_ZN7Imf_3_019DeepTiledOutputPart9writeTileEiii
libOpenEXR-3_0.so.29:_ZN7Imf_3_019DeepTiledOutputPart9writeTileEiiii
libOpenEXR-3_0.so.29:_ZN7Imf_3_019DeepTiledOutputPartC1ERNS_19MultiPartOutputFileEi
libOpenEXR-3_0.so.29:_ZN7Imf_3_019DeepTiledOutputPartC2ERNS_19MultiPartOutputFileEi
libOpenEXR-3_0.so.29:_ZN7Imf_3_019MultiPartOutputFileC1EPKcPKNS_6HeaderEibi
libOpenEXR-3_0.so.29:_ZN7Imf_3_019MultiPartOutputFileC1ERNS_7OStreamEPKNS_6HeaderEibi
libOpenEXR-3_0.so.29:_ZN7Imf_3_019MultiPartOutputFileC2EPKcPKNS_6HeaderEibi
libOpenEXR-3_0.so.29:_ZN7Imf_3_019MultiPartOutputFileC2ERNS_7OStreamEPKNS_6HeaderEibi
libOpenEXR-3_0.so.29:_ZN7Imf_3_019MultiPartOutputFileD0Ev
libOpenEXR-3_0.so.29:_ZN7Imf_3_019MultiPartOutputFileD1Ev
libOpenEXR-3_0.so.29:_ZN7Imf_3_019MultiPartOutputFileD2Ev
libOpenEXR-3_0.so.29:_ZN7Imf_3_019TiledRgbaOutputFile10writeTilesEiiiii
libOpenEXR-3_0.so.29:_ZN7Imf_3_019TiledRgbaOutputFile10writeTilesEiiiiii
libOpenEXR-3_0.so.29:_ZN7Imf_3_019TiledRgbaOutputFile14setFrameBufferEPKNS_4RgbaEmm
libOpenEXR-3_0.so.29:_ZN7Imf_3_019TiledRgbaOutputFile18updatePreviewImageEPKNS_11PreviewRgbaE
libOpenEXR-3_0.so.29:_ZN7Imf_3_019TiledRgbaOutputFile9breakTileEiiiiiic
libOpenEXR-3_0.so.29:_ZN7Imf_3_019TiledRgbaOutputFile9writeTileEiii
libOpenEXR-3_0.so.29:_ZN7Imf_3_019TiledRgbaOutputFile9writeTileEiiii
libOpenEXR-3_0.so.29:_ZN7Imf_3_019TiledRgbaOutputFileC1EPKcRKNS_6HeaderENS_12RgbaChannelsEiiNS_9LevelModeENS_17LevelRoundingModeEi
libOpenEXR-3_0.so.29:_ZN7Imf_3_019TiledRgbaOutputFileC1EPKciiNS_9LevelModeENS_17LevelRoundingModeERKN9Imath_3_03BoxINS5_4Vec2IiEEEESB_NS_12RgbaChannelsEfNS7_IfEEfNS_9LineOrderENS_11CompressionEi
libOpenEXR-3_0.so.29:_ZN7Imf_3_019TiledRgbaOutputFileC1EPKciiiiNS_9LevelModeENS_17LevelRoundingModeENS_12RgbaChannelsEfN9Imath_3_04Vec2IfEEfNS_9LineOrderENS_11CompressionEi
libOpenEXR-3_0.so.29:_ZN7Imf_3_019TiledRgbaOutputFileC1ERNS_7OStreamERKNS_6HeaderENS_12RgbaChannelsEiiNS_9LevelModeENS_17LevelRoundingModeEi
libOpenEXR-3_0.so.29:_ZN7Imf_3_019TiledRgbaOutputFileC2EPKcRKNS_6HeaderENS_12RgbaChannelsEiiNS_9LevelModeENS_17LevelRoundingModeEi
libOpenEXR-3_0.so.29:_ZN7Imf_3_019TiledRgbaOutputFileC2EPKciiNS_9LevelModeENS_17LevelRoundingModeERKN9Imath_3_03BoxINS5_4Vec2IiEEEESB_NS_12RgbaChannelsEfNS7_IfEEfNS_9LineOrderENS_11CompressionEi
libOpenEXR-3_0.so.29:_ZN7Imf_3_019TiledRgbaOutputFileC2EPKciiiiNS_9LevelModeENS_17LevelRoundingModeENS_12RgbaChannelsEfN9Imath_3_04Vec2IfEEfNS_9LineOrderENS_11CompressionEi
libOpenEXR-3_0.so.29:_ZN7Imf_3_019TiledRgbaOutputFileC2ERNS_7OStreamERKNS_6HeaderENS_12RgbaChannelsEiiNS_9LevelModeENS_17LevelRoundingModeEi
libOpenEXR-3_0.so.29:_ZN7Imf_3_019TiledRgbaOutputFileD0Ev
libOpenEXR-3_0.so.29:_ZN7Imf_3_019TiledRgbaOutputFileD1Ev
libOpenEXR-3_0.so.29:_ZN7Imf_3_019TiledRgbaOutputFileD2Ev
libOpenEXR-3_0.so.29:_ZN7Imf_3_019addLookModTransformERNS_6HeaderERKNSt7__cxx1112basic_stringIcSt11char_traitsIcESaIcEEE
libOpenEXR-3_0.so.29:_ZN7Imf_3_019copyFromFrameBufferERPcRPKcS3_mNS_10Compressor6FormatENS_9PixelTypeE
libOpenEXR-3_0.so.29:_ZN7Imf_3_019copyIntoFrameBufferERPKcPcS3_mbdNS_10Compressor6FormatENS_9PixelTypeES6_
libOpenEXR-3_0.so.29:_ZN7Imf_3_019dwaCompressionLevelERKNS_6HeaderE
libOpenEXR-3_0.so.29:_ZN7Imf_3_019dwaCompressionLevelERNS_6HeaderE
libOpenEXR-3_0.so.29:_ZN7Imf_3_019hasLookModTransformERKNS_6HeaderE
libOpenEXR-3_0.so.29:_ZN7Imf_3_019idManifestAttributeERKNS_6HeaderE
libOpenEXR-3_0.so.29:_ZN7Imf_3_019idManifestAttributeERNS_6HeaderE
libOpenEXR-3_0.so.29:_ZN7Imf_3_019viewFromChannelNameERKNSt7__cxx1112basic_stringIcSt11char_traitsIcESaIcEEERKSt6vectorIS5_SaIS5_EE
libOpenEXR-3_0.so.29:_ZN7Imf_3_019worldToNDCAttributeERKNS_6HeaderE
libOpenEXR-3_0.so.29:_ZN7Imf_3_019worldToNDCAttributeERNS_6HeaderE
libOpenEXR-3_0.so.29:_ZN7Imf_3_020CompressedIDManifestC1ERKNS_10IDManifestE
libOpenEXR-3_0.so.29:_ZN7Imf_3_020CompressedIDManifestC1ERKS0_
libOpenEXR-3_0.so.29:_ZN7Imf_3_020CompressedIDManifestC1Ev
libOpenEXR-3_0.so.29:_ZN7Imf_3_020CompressedIDManifestC2ERKNS_10IDManifestE
libOpenEXR-3_0.so.29:_ZN7Imf_3_020CompressedIDManifestC2ERKS0_
libOpenEXR-3_0.so.29:_ZN7Imf_3_020CompressedIDManifestC2Ev
libOpenEXR-3_0.so.29:_ZN7Imf_3_020CompressedIDManifestD1Ev
libOpenEXR-3_0.so.29:_ZN7Imf_3_020CompressedIDManifestD2Ev
libOpenEXR-3_0.so.29:_ZN7Imf_3_020CompressedIDManifestaSERKS0_
libOpenEXR-3_0.so.29:_ZN7Imf_3_020precalculateTileInfoERKNS_15TileDescriptionEiiiiRPiS4_RiS5_
libOpenEXR-3_0.so.29:_ZN7Imf_3_020setGlobalThreadCountEi
libOpenEXR-3_0.so.29:_ZN7Imf_3_021CompositeDeepScanLine10readPixelsEii
libOpenEXR-3_0.so.29:_ZN7Imf_3_021CompositeDeepScanLine14setCompositingEPNS_15DeepCompositingE
libOpenEXR-3_0.so.29:_ZN7Imf_3_021CompositeDeepScanLine14setFrameBufferERKNS_11FrameBufferE
libOpenEXR-3_0.so.29:_ZN7Imf_3_021CompositeDeepScanLine9addSourceEPNS_21DeepScanLineInputFileE
libOpenEXR-3_0.so.29:_ZN7Imf_3_021CompositeDeepScanLine9addSourceEPNS_21DeepScanLineInputPartE
libOpenEXR-3_0.so.29:_ZN7Imf_3_021CompositeDeepScanLineC1Ev
libOpenEXR-3_0.so.29:_ZN7Imf_3_021CompositeDeepScanLineC2Ev
libOpenEXR-3_0.so.29:_ZN7Imf_3_021CompositeDeepScanLineD0Ev
libOpenEXR-3_0.so.29:_ZN7Imf_3_021CompositeDeepScanLineD1Ev
libOpenEXR-3_0.so.29:_ZN7Imf_3_021CompositeDeepScanLineD2Ev
libOpenEXR-3_0.so.29:_ZN7Imf_3_021DeepScanLineInputFile10initializeERKNS_6HeaderE
libOpenEXR-3_0.so.29:_ZN7Imf_3_021DeepScanLineInputFile10readPixelsEi
libOpenEXR-3_0.so.29:_ZN7Imf_3_021DeepScanLineInputFile10readPixelsEii
libOpenEXR-3_0.so.29:_ZN7Imf_3_021DeepScanLineInputFile12rawPixelDataEiPcRm
libOpenEXR-3_0.so.29:_ZN7Imf_3_021DeepScanLineInputFile14setFrameBufferERKNS_15DeepFrameBufferE
libOpenEXR-3_0.so.29:_ZN7Imf_3_021DeepScanLineInputFile19multiPartInitializeEPNS_13InputPartDataE
libOpenEXR-3_0.so.29:_ZN7Imf_3_021DeepScanLineInputFile21readPixelSampleCountsEi
libOpenEXR-3_0.so.29:_ZN7Imf_3_021DeepScanLineInputFile21readPixelSampleCountsEii
libOpenEXR-3_0.so.29:_ZN7Imf_3_021DeepScanLineInputFile23compatibilityInitializeERNS_7IStreamE
libOpenEXR-3_0.so.29:_ZN7Imf_3_021DeepScanLineInputFileC1EPKci
libOpenEXR-3_0.so.29:_ZN7Imf_3_021DeepScanLineInputFileC1EPNS_13InputPartDataE
libOpenEXR-3_0.so.29:_ZN7Imf_3_021DeepScanLineInputFileC1ERKNS_6HeaderEPNS_7IStreamEii
libOpenEXR-3_0.so.29:_ZN7Imf_3_021DeepScanLineInputFileC1ERNS_7IStreamEi
libOpenEXR-3_0.so.29:_ZN7Imf_3_021DeepScanLineInputFileC2EPKci
libOpenEXR-3_0.so.29:_ZN7Imf_3_021DeepScanLineInputFileC2EPNS_13InputPartDataE
libOpenEXR-3_0.so.29:_ZN7Imf_3_021DeepScanLineInputFileC2ERKNS_6HeaderEPNS_7IStreamEii
libOpenEXR-3_0.so.29:_ZN7Imf_3_021DeepScanLineInputFileC2ERNS_7IStreamEi
libOpenEXR-3_0.so.29:_ZN7Imf_3_021DeepScanLineInputFileD0Ev
libOpenEXR-3_0.so.29:_ZN7Imf_3_021DeepScanLineInputFileD1Ev
libOpenEXR-3_0.so.29:_ZN7Imf_3_021DeepScanLineInputFileD2Ev
libOpenEXR-3_0.so.29:_ZN7Imf_3_021DeepScanLineInputPart10readPixelsEi
libOpenEXR-3_0.so.29:_ZN7Imf_3_021DeepScanLineInputPart10readPixelsEii
libOpenEXR-3_0.so.29:_ZN7Imf_3_021DeepScanLineInputPart12rawPixelDataEiPcRm
libOpenEXR-3_0.so.29:_ZN7Imf_3_021DeepScanLineInputPart14setFrameBufferERKNS_15DeepFrameBufferE
libOpenEXR-3_0.so.29:_ZN7Imf_3_021DeepScanLineInputPart21readPixelSampleCountsEi
libOpenEXR-3_0.so.29:_ZN7Imf_3_021DeepScanLineInputPart21readPixelSampleCountsEii
libOpenEXR-3_0.so.29:_ZN7Imf_3_021DeepScanLineInputPartC1ERNS_18MultiPartInputFileEi
libOpenEXR-3_0.so.29:_ZN7Imf_3_021DeepScanLineInputPartC2ERNS_18MultiPartInputFileEi
libOpenEXR-3_0.so.29:_ZN7Imf_3_021addOriginalDataWindowERNS_6HeaderERKN9Imath_3_03BoxINS2_4Vec2IiEEEE
libOpenEXR-3_0.so.29:_ZN7Imf_3_021addRenderingTransformERNS_6HeaderERKNSt7__cxx1112basic_stringIcSt11char_traitsIcESaIcEEE
libOpenEXR-3_0.so.29:_ZN7Imf_3_021bytesPerDeepLineTableERKNS_6HeaderEPciiRSt6vectorImSaImEE
libOpenEXR-3_0.so.29:_ZN7Imf_3_021bytesPerDeepLineTableERKNS_6HeaderEiiPKciiRSt6vectorImSaImEE
libOpenEXR-3_0.so.29:_ZN7Imf_3_021calculateBytesPerLineERKNS_6HeaderEPciiiiiiRSt6vectorIiSaIiEES7_RS4_ImSaImEE
libOpenEXR-3_0.so.29:_ZN7Imf_3_021fillChannelWithZeroesERPcNS_10Compressor6FormatENS_9PixelTypeEm
libOpenEXR-3_0.so.29:_ZN7Imf_3_021hasOriginalDataWindowERKNS_6HeaderE
libOpenEXR-3_0.so.29:_ZN7Imf_3_021hasRenderingTransformERKNS_6HeaderE
libOpenEXR-3_0.so.29:_ZN7Imf_3_022DeepScanLineOutputFile10copyPixelsERNS_21DeepScanLineInputFileE
libOpenEXR-3_0.so.29:_ZN7Imf_3_022DeepScanLineOutputFile10copyPixelsERNS_21DeepScanLineInputPartE
libOpenEXR-3_0.so.29:_ZN7Imf_3_022DeepScanLineOutputFile10initializeERKNS_6HeaderE
libOpenEXR-3_0.so.29:_ZN7Imf_3_022DeepScanLineOutputFile11writePixelsEi
libOpenEXR-3_0.so.29:_ZN7Imf_3_022DeepScanLineOutputFile14setFrameBufferERKNS_15DeepFrameBufferE
libOpenEXR-3_0.so.29:_ZN7Imf_3_022DeepScanLineOutputFile18updatePreviewImageEPKNS_11PreviewRgbaE
libOpenEXR-3_0.so.29:_ZN7Imf_3_022DeepScanLineOutputFile4DataC1Ei
libOpenEXR-3_0.so.29:_ZN7Imf_3_022DeepScanLineOutputFile4DataC2Ei
libOpenEXR-3_0.so.29:_ZN7Imf_3_022DeepScanLineOutputFile4DataD1Ev
libOpenEXR-3_0.so.29:_ZN7Imf_3_022DeepScanLineOutputFile4DataD2Ev
libOpenEXR-3_0.so.29:_ZN7Imf_3_022DeepScanLineOutputFileC1EPKNS_14OutputPartDataE
libOpenEXR-3_0.so.29:_ZN7Imf_3_022DeepScanLineOutputFileC1EPKcRKNS_6HeaderEi
libOpenEXR-3_0.so.29:_ZN7Imf_3_022DeepScanLineOutputFileC1ERNS_7OStreamERKNS_6HeaderEi
libOpenEXR-3_0.so.29:_ZN7Imf_3_022DeepScanLineOutputFileC2EPKNS_14OutputPartDataE
libOpenEXR-3_0.so.29:_ZN7Imf_3_022DeepScanLineOutputFileC2EPKcRKNS_6HeaderEi
libOpenEXR-3_0.so.29:_ZN7Imf_3_022DeepScanLineOutputFileC2ERNS_7OStreamERKNS_6HeaderEi
libOpenEXR-3_0.so.29:_ZN7Imf_3_022DeepScanLineOutputFileD0Ev
libOpenEXR-3_0.so.29:_ZN7Imf_3_022DeepScanLineOutputFileD1Ev
libOpenEXR-3_0.so.29:_ZN7Imf_3_022DeepScanLineOutputFileD2Ev
libOpenEXR-3_0.so.29:_ZN7Imf_3_022DeepScanLineOutputPart10copyPixelsERNS_21DeepScanLineInputFileE
libOpenEXR-3_0.so.29:_ZN7Imf_3_022DeepScanLineOutputPart10copyPixelsERNS_21DeepScanLineInputPartE
libOpenEXR-3_0.so.29:_ZN7Imf_3_022DeepScanLineOutputPart11writePixelsEi
libOpenEXR-3_0.so.29:_ZN7Imf_3_022DeepScanLineOutputPart14setFrameBufferERKNS_15DeepFrameBufferE
libOpenEXR-3_0.so.29:_ZN7Imf_3_022DeepScanLineOutputPart18updatePreviewImageEPKNS_11PreviewRgbaE
libOpenEXR-3_0.so.29:_ZN7Imf_3_022DeepScanLineOutputPartC1ERNS_19MultiPartOutputFileEi
libOpenEXR-3_0.so.29:_ZN7Imf_3_022DeepScanLineOutputPartC2ERNS_19MultiPartOutputFileEi
libOpenEXR-3_0.so.29:_ZN7Imf_3_022addDwaCompressionLevelERNS_6HeaderERKf
libOpenEXR-3_0.so.29:_ZN7Imf_3_022calculateBytesPerPixelERKNS_6HeaderE
libOpenEXR-3_0.so.29:_ZN7Imf_3_022hasDwaCompressionLevelERKNS_6HeaderE
libOpenEXR-3_0.so.29:_ZN7Imf_3_022isMultiPartOpenExrFileEPKc
libOpenEXR-3_0.so.29:_ZN7Imf_3_022isMultiPartOpenExrFileERNS_7IStreamE
libOpenEXR-3_0.so.29:_ZN7Imf_3_022isValidDeepCompressionENS_11CompressionE
libOpenEXR-3_0.so.29:_ZN7Imf_3_022worldToCameraAttributeERKNS_6HeaderE
libOpenEXR-3_0.so.29:_ZN7Imf_3_022worldToCameraAttributeERNS_6HeaderE
libOpenEXR-3_0.so.29:_ZN7Imf_3_023adoptedNeutralAttributeERKNS_6HeaderE
libOpenEXR-3_0.so.29:_ZN7Imf_3_023adoptedNeutralAttributeERNS_6HeaderE
libOpenEXR-3_0.so.29:_ZN7Imf_3_023chromaticitiesAttributeERKNS_6HeaderE
libOpenEXR-3_0.so.29:_ZN7Imf_3_023chromaticitiesAttributeERNS_6HeaderE
libOpenEXR-3_0.so.29:_ZN7Imf_3_023copyFromDeepFrameBufferERPcPKcS0_lliiiiiiilllNS_10Compressor6FormatENS_9PixelTypeE
libOpenEXR-3_0.so.29:_ZN7Imf_3_023copyIntoDeepFrameBufferERPKcPcS1_lliiiiiiilllbdNS_10Compressor6FormatENS_9PixelTypeES6_
libOpenEXR-3_0.so.29:_ZN7Imf_3_023deepImageStateAttributeERKNS_6HeaderE
libOpenEXR-3_0.so.29:_ZN7Imf_3_023deepImageStateAttributeERNS_6HeaderE
libOpenEXR-3_0.so.29:_ZN7Imf_3_023getChunkOffsetTableSizeERKNS_6HeaderE
libOpenEXR-3_0.so.29:_ZN7Imf_3_023offsetInLineBufferTableERKSt6vectorImSaImEEiRS2_
libOpenEXR-3_0.so.29:_ZN7Imf_3_023offsetInLineBufferTableERKSt6vectorImSaImEEiiiRS2_
libOpenEXR-3_0.so.29:_ZN7Imf_3_023whiteLuminanceAttributeERKNS_6HeaderE
libOpenEXR-3_0.so.29:_ZN7Imf_3_023whiteLuminanceAttributeERNS_6HeaderE
libOpenEXR-3_0.so.29:_ZN7Imf_3_024framesPerSecondAttributeERKNS_6HeaderE
libOpenEXR-3_0.so.29:_ZN7Imf_3_024framesPerSecondAttributeERNS_6HeaderE
libOpenEXR-3_0.so.29:_ZN7Imf_3_025lookModTransformAttributeB5cxx11ERKNS_6HeaderE
libOpenEXR-3_0.so.29:_ZN7Imf_3_025lookModTransformAttributeB5cxx11ERNS_6HeaderE
libOpenEXR-3_0.so.29:_ZN7Imf_3_027originalDataWindowAttributeERKNS_6HeaderE
libOpenEXR-3_0.so.29:_ZN7Imf_3_027originalDataWindowAttributeERNS_6HeaderE
libOpenEXR-3_0.so.29:_ZN7Imf_3_027renderingTransformAttributeB5cxx11ERKNS_6HeaderE
libOpenEXR-3_0.so.29:_ZN7Imf_3_027renderingTransformAttributeB5cxx11ERNS_6HeaderE
libOpenEXR-3_0.so.29:_ZN7Imf_3_028dwaCompressionLevelAttributeERKNS_6HeaderE
libOpenEXR-3_0.so.29:_ZN7Imf_3_028dwaCompressionLevelAttributeERNS_6HeaderE
libOpenEXR-3_0.so.29:_ZN7Imf_3_028getTiledChunkOffsetTableSizeERKNS_6HeaderE
libOpenEXR-3_0.so.29:_ZN7Imf_3_05CpuIdC1Ev
libOpenEXR-3_0.so.29:_ZN7Imf_3_05CpuIdC2Ev
libOpenEXR-3_0.so.29:_ZN7Imf_3_05Slice4MakeENS_9PixelTypeEPKvRKN9Imath_3_03BoxINS4_4Vec2IiEEEEmmiidbb
libOpenEXR-3_0.so.29:_ZN7Imf_3_05Slice4MakeENS_9PixelTypeEPKvRKN9Imath_3_04Vec2IiEEllmmiidbb
libOpenEXR-3_0.so.29:_ZN7Imf_3_05SliceC1ENS_9PixelTypeEPcmmiidbb
libOpenEXR-3_0.so.29:_ZN7Imf_3_05SliceC2ENS_9PixelTypeEPcmmiidbb
libOpenEXR-3_0.so.29:_ZN7Imf_3_05focusERKNS_6HeaderE
libOpenEXR-3_0.so.29:_ZN7Imf_3_05focusERNS_6HeaderE
libOpenEXR-3_0.so.29:_ZN7Imf_3_05ownerB5cxx11ERKNS_6HeaderE
libOpenEXR-3_0.so.29:_ZN7Imf_3_05ownerB5cxx11ERNS_6HeaderE
libOpenEXR-3_0.so.29:_ZN7Imf_3_06Header10chunkCountEv
libOpenEXR-3_0.so.29:_ZN7Imf_3_06Header10dataWindowEv
libOpenEXR-3_0.so.29:_ZN7Imf_3_06Header10setVersionEi
libOpenEXR-3_0.so.29:_ZN7Imf_3_06Header11compressionEv
libOpenEXR-3_0.so.29:_ZN7Imf_3_06Header12previewImageEv
libOpenEXR-3_0.so.29:_ZN7Imf_3_06Header12readsNothingEv
libOpenEXR-3_0.so.29:_ZN7Imf_3_06Header13displayWindowEv
libOpenEXR-3_0.so.29:_ZN7Imf_3_06Header13setChunkCountEi
libOpenEXR-3_0.so.29:_ZN7Imf_3_06Header14setMaxTileSizeEii
libOpenEXR-3_0.so.29:_ZN7Imf_3_06Header15setMaxImageSizeEii
libOpenEXR-3_0.so.29:_ZN7Imf_3_06Header15setPreviewImageERKNS_12PreviewImageE
libOpenEXR-3_0.so.29:_ZN7Imf_3_06Header15tileDescriptionEv
libOpenEXR-3_0.so.29:_ZN7Imf_3_06Header16pixelAspectRatioEv
libOpenEXR-3_0.so.29:_ZN7Imf_3_06Header17screenWindowWidthEv
libOpenEXR-3_0.so.29:_ZN7Imf_3_06Header18screenWindowCenterEv
libOpenEXR-3_0.so.29:_ZN7Imf_3_06Header18setTileDescriptionERKNS_15TileDescriptionE
libOpenEXR-3_0.so.29:_ZN7Imf_3_06Header3endEv
libOpenEXR-3_0.so.29:_ZN7Imf_3_06Header4findEPKc
libOpenEXR-3_0.so.29:_ZN7Imf_3_06Header4findERKNSt7__cxx1112basic_stringIcSt11char_traitsIcESaIcEEE
libOpenEXR-3_0.so.29:_ZN7Imf_3_06Header4nameB5cxx11Ev
libOpenEXR-3_0.so.29:_ZN7Imf_3_06Header4typeB5cxx11Ev
libOpenEXR-3_0.so.29:_ZN7Imf_3_06Header4viewB5cxx11Ev
libOpenEXR-3_0.so.29:_ZN7Imf_3_06Header5beginEv
libOpenEXR-3_0.so.29:_ZN7Imf_3_06Header5eraseEPKc
libOpenEXR-3_0.so.29:_ZN7Imf_3_06Header5eraseERKNSt7__cxx1112basic_stringIcSt11char_traitsIcESaIcEEE
libOpenEXR-3_0.so.29:_ZN7Imf_3_06Header6insertEPKcRKNS_9AttributeE
libOpenEXR-3_0.so.29:_ZN7Imf_3_06Header6insertERKNSt7__cxx1112basic_stringIcSt11char_traitsIcESaIcEEERKNS_9AttributeE
libOpenEXR-3_0.so.29:_ZN7Imf_3_06Header7setNameERKNSt7__cxx1112basic_stringIcSt11char_traitsIcESaIcEEE
libOpenEXR-3_0.so.29:_ZN7Imf_3_06Header7setTypeERKNSt7__cxx1112basic_stringIcSt11char_traitsIcESaIcEEE
libOpenEXR-3_0.so.29:_ZN7Imf_3_06Header7setViewERKNSt7__cxx1112basic_stringIcSt11char_traitsIcESaIcEEE
libOpenEXR-3_0.so.29:_ZN7Imf_3_06Header7versionEv
libOpenEXR-3_0.so.29:_ZN7Imf_3_06Header8channelsEv
libOpenEXR-3_0.so.29:_ZN7Imf_3_06Header8readFromERNS_7IStreamERi
libOpenEXR-3_0.so.29:_ZN7Imf_3_06Header9lineOrderEv
libOpenEXR-3_0.so.29:_ZN7Imf_3_06HeaderC1ERKN9Imath_3_03BoxINS1_4Vec2IiEEEES7_fRKNS3_IfEEfNS_9LineOrderENS_11CompressionE
libOpenEXR-3_0.so.29:_ZN7Imf_3_06HeaderC1ERKS0_
libOpenEXR-3_0.so.29:_ZN7Imf_3_06HeaderC1EiiRKN9Imath_3_03BoxINS1_4Vec2IiEEEEfRKNS3_IfEEfNS_9LineOrderENS_11CompressionE
libOpenEXR-3_0.so.29:_ZN7Imf_3_06HeaderC1EiifRKN9Imath_3_04Vec2IfEEfNS_9LineOrderENS_11CompressionE
libOpenEXR-3_0.so.29:_ZN7Imf_3_06HeaderC2ERKN9Imath_3_03BoxINS1_4Vec2IiEEEES7_fRKNS3_IfEEfNS_9LineOrderENS_11CompressionE
libOpenEXR-3_0.so.29:_ZN7Imf_3_06HeaderC2ERKS0_
libOpenEXR-3_0.so.29:_ZN7Imf_3_06HeaderC2EiiRKN9Imath_3_03BoxINS1_4Vec2IiEEEEfRKNS3_IfEEfNS_9LineOrderENS_11CompressionE
libOpenEXR-3_0.so.29:_ZN7Imf_3_06HeaderC2EiifRKN9Imath_3_04Vec2IfEEfNS_9LineOrderENS_11CompressionE
libOpenEXR-3_0.so.29:_ZN7Imf_3_06HeaderD1Ev
libOpenEXR-3_0.so.29:_ZN7Imf_3_06HeaderD2Ev
libOpenEXR-3_0.so.29:_ZN7Imf_3_06HeaderaSERKS0_
libOpenEXR-3_0.so.29:_ZN7Imf_3_06HeaderixEPKc
libOpenEXR-3_0.so.29:_ZN7Imf_3_06HeaderixERKNSt7__cxx1112basic_stringIcSt11char_traitsIcESaIcEEE
libOpenEXR-3_0.so.29:_ZN7Imf_3_06envmapERKNS_6HeaderE
libOpenEXR-3_0.so.29:_ZN7Imf_3_06envmapERNS_6HeaderE
libOpenEXR-3_0.so.29:_ZN7Imf_3_07ChannelC1ENS_9PixelTypeEiib
libOpenEXR-3_0.so.29:_ZN7Imf_3_07ChannelC2ENS_9PixelTypeEiib
libOpenEXR-3_0.so.29:_ZN7Imf_3_07CubeMap10sizeOfFaceERKN9Imath_3_03BoxINS1_4Vec2IiEEEE
libOpenEXR-3_0.so.29:_ZN7Imf_3_07CubeMap13pixelPositionENS_11CubeMapFaceERKN9Imath_3_03BoxINS2_4Vec2IiEEEENS4_IfEE
libOpenEXR-3_0.so.29:_ZN7Imf_3_07CubeMap17dataWindowForFaceENS_11CubeMapFaceERKN9Imath_3_03BoxINS2_4Vec2IiEEEE
libOpenEXR-3_0.so.29:_ZN7Imf_3_07CubeMap20faceAndPixelPositionERKN9Imath_3_04Vec3IfEERKNS1_3BoxINS1_4Vec2IiEEEERNS_11CubeMapFaceERNS7_IfEE
libOpenEXR-3_0.so.29:_ZN7Imf_3_07CubeMap9directionENS_11CubeMapFaceERKN9Imath_3_03BoxINS2_4Vec2IiEEEERKNS4_IfEE
libOpenEXR-3_0.so.29:_ZN7Imf_3_07IStream16readMemoryMappedEi
libOpenEXR-3_0.so.29:_ZN7Imf_3_07IStream5clearEv
libOpenEXR-3_0.so.29:_ZN7Imf_3_07IStreamC1EPKc
libOpenEXR-3_0.so.29:_ZN7Imf_3_07IStreamC2EPKc
libOpenEXR-3_0.so.29:_ZN7Imf_3_07IStreamD0Ev
libOpenEXR-3_0.so.29:_ZN7Imf_3_07IStreamD1Ev
libOpenEXR-3_0.so.29:_ZN7Imf_3_07IStreamD2Ev
libOpenEXR-3_0.so.29:_ZN7Imf_3_07KeyCode11setFilmTypeEi
libOpenEXR-3_0.so.29:_ZN7Imf_3_07KeyCode13setPerfOffsetEi
libOpenEXR-3_0.so.29:_ZN7Imf_3_07KeyCode14setFilmMfcCodeEi
libOpenEXR-3_0.so.29:_ZN7Imf_3_07KeyCode16setPerfsPerCountEi
libOpenEXR-3_0.so.29:_ZN7Imf_3_07KeyCode16setPerfsPerFrameEi
libOpenEXR-3_0.so.29:_ZN7Imf_3_07KeyCode8setCountEi
libOpenEXR-3_0.so.29:_ZN7Imf_3_07KeyCode9setPrefixEi
libOpenEXR-3_0.so.29:_ZN7Imf_3_07KeyCodeC1ERKS0_
libOpenEXR-3_0.so.29:_ZN7Imf_3_07KeyCodeC1Eiiiiiii
libOpenEXR-3_0.so.29:_ZN7Imf_3_07KeyCodeC2ERKS0_
libOpenEXR-3_0.so.29:_ZN7Imf_3_07KeyCodeC2Eiiiiiii
libOpenEXR-3_0.so.29:_ZN7Imf_3_07KeyCodeaSERKS0_
libOpenEXR-3_0.so.29:_ZN7Imf_3_07OStreamC1EPKc
libOpenEXR-3_0.so.29:_ZN7Imf_3_07OStreamC2EPKc
libOpenEXR-3_0.so.29:_ZN7Imf_3_07OStreamD0Ev
libOpenEXR-3_0.so.29:_ZN7Imf_3_07OStreamD1Ev
libOpenEXR-3_0.so.29:_ZN7Imf_3_07OStreamD2Ev
libOpenEXR-3_0.so.29:_ZN7Imf_3_07RgbaYca13fixSaturationERKN9Imath_3_04Vec3IfEEiPKPKNS_4RgbaEPS6_
libOpenEXR-3_0.so.29:_ZN7Imf_3_07RgbaYca18decimateChromaVertEiPKPKNS_4RgbaEPS1_
libOpenEXR-3_0.so.29:_ZN7Imf_3_07RgbaYca19decimateChromaHorizEiPKNS_4RgbaEPS1_
libOpenEXR-3_0.so.29:_ZN7Imf_3_07RgbaYca21reconstructChromaVertEiPKPKNS_4RgbaEPS1_
libOpenEXR-3_0.so.29:_ZN7Imf_3_07RgbaYca22reconstructChromaHorizEiPKNS_4RgbaEPS1_
libOpenEXR-3_0.so.29:_ZN7Imf_3_07RgbaYca8roundYCAEijjPKNS_4RgbaEPS1_
libOpenEXR-3_0.so.29:_ZN7Imf_3_07RgbaYca9RGBAtoYCAERKN9Imath_3_04Vec3IfEEibPKNS_4RgbaEPS6_
libOpenEXR-3_0.so.29:_ZN7Imf_3_07RgbaYca9YCAtoRGBAERKN9Imath_3_04Vec3IfEEiPKNS_4RgbaEPS6_
libOpenEXR-3_0.so.29:_ZN7Imf_3_07RgbaYca9computeYwERKNS_14ChromaticitiesE
libOpenEXR-3_0.so.29:_ZN7Imf_3_07capDateB5cxx11ERKNS_6HeaderE
libOpenEXR-3_0.so.29:_ZN7Imf_3_07capDateB5cxx11ERNS_6HeaderE
libOpenEXR-3_0.so.29:_ZN7Imf_3_07expTimeERKNS_6HeaderE
libOpenEXR-3_0.so.29:_ZN7Imf_3_07expTimeERNS_6HeaderE
libOpenEXR-3_0.so.29:_ZN7Imf_3_07isImageERKNSt7__cxx1112basic_stringIcSt11char_traitsIcESaIcEEE
libOpenEXR-3_0.so.29:_ZN7Imf_3_07isTiledERKNSt7__cxx1112basic_stringIcSt11char_traitsIcESaIcEEE
libOpenEXR-3_0.so.29:_ZN7Imf_3_07keyCodeERKNS_6HeaderE
libOpenEXR-3_0.so.29:_ZN7Imf_3_07keyCodeERNS_6HeaderE
libOpenEXR-3_0.so.29:_ZN7Imf_3_08RGBtoXYZERKNS_14ChromaticitiesEf
libOpenEXR-3_0.so.29:_ZN7Imf_3_08RationalC1Ed
libOpenEXR-3_0.so.29:_ZN7Imf_3_08RationalC2Ed
libOpenEXR-3_0.so.29:_ZN7Imf_3_08TimeCode10setMinutesEi
libOpenEXR-3_0.so.29:_ZN7Imf_3_08TimeCode10setSecondsEi
libOpenEXR-3_0.so.29:_ZN7Imf_3_08TimeCode11setUserDataEj
libOpenEXR-3_0.so.29:_ZN7Imf_3_08TimeCode12setDropFrameEb
libOpenEXR-3_0.so.29:_ZN7Imf_3_08TimeCode13setColorFrameEb
libOpenEXR-3_0.so.29:_ZN7Imf_3_08TimeCode13setFieldPhaseEb
libOpenEXR-3_0.so.29:_ZN7Imf_3_08TimeCode14setBinaryGroupEii
libOpenEXR-3_0.so.29:_ZN7Imf_3_08TimeCode15setTimeAndFlagsEjNS0_7PackingE
libOpenEXR-3_0.so.29:_ZN7Imf_3_08TimeCode7setBgf0Eb
libOpenEXR-3_0.so.29:_ZN7Imf_3_08TimeCode7setBgf1Eb
libOpenEXR-3_0.so.29:_ZN7Imf_3_08TimeCode7setBgf2Eb
libOpenEXR-3_0.so.29:_ZN7Imf_3_08TimeCode8setFrameEi
libOpenEXR-3_0.so.29:_ZN7Imf_3_08TimeCode8setHoursEi
libOpenEXR-3_0.so.29:_ZN7Imf_3_08TimeCodeC1ERKS0_
libOpenEXR-3_0.so.29:_ZN7Imf_3_08TimeCodeC1Eiiiibbbbbbiiiiiiii
libOpenEXR-3_0.so.29:_ZN7Imf_3_08TimeCodeC1EjjNS0_7PackingE
libOpenEXR-3_0.so.29:_ZN7Imf_3_08TimeCodeC1Ev
libOpenEXR-3_0.so.29:_ZN7Imf_3_08TimeCodeC2ERKS0_
libOpenEXR-3_0.so.29:_ZN7Imf_3_08TimeCodeC2Eiiiibbbbbbiiiiiiii
libOpenEXR-3_0.so.29:_ZN7Imf_3_08TimeCodeC2EjjNS0_7PackingE
libOpenEXR-3_0.so.29:_ZN7Imf_3_08TimeCodeC2Ev
libOpenEXR-3_0.so.29:_ZN7Imf_3_08TimeCodeaSERKS0_
libOpenEXR-3_0.so.29:_ZN7Imf_3_08XYZtoRGBERKNS_14ChromaticitiesEf
libOpenEXR-3_0.so.29:_ZN7Imf_3_08addFocusERNS_6HeaderERKf
libOpenEXR-3_0.so.29:_ZN7Imf_3_08addOwnerERNS_6HeaderERKNSt7__cxx1112basic_stringIcSt11char_traitsIcESaIcEEE
libOpenEXR-3_0.so.29:_ZN7Imf_3_08altitudeERKNS_6HeaderE
libOpenEXR-3_0.so.29:_ZN7Imf_3_08altitudeERNS_6HeaderE
libOpenEXR-3_0.so.29:_ZN7Imf_3_08apertureERKNS_6HeaderE
libOpenEXR-3_0.so.29:_ZN7Imf_3_08apertureERNS_6HeaderE
libOpenEXR-3_0.so.29:_ZN7Imf_3_08commentsB5cxx11ERKNS_6HeaderE
libOpenEXR-3_0.so.29:_ZN7Imf_3_08commentsB5cxx11ERNS_6HeaderE
libOpenEXR-3_0.so.29:_ZN7Imf_3_08hasFocusERKNS_6HeaderE
libOpenEXR-3_0.so.29:_ZN7Imf_3_08hasOwnerERKNS_6HeaderE
libOpenEXR-3_0.so.29:_ZN7Imf_3_08isoSpeedERKNS_6HeaderE
libOpenEXR-3_0.so.29:_ZN7Imf_3_08isoSpeedERNS_6HeaderE
libOpenEXR-3_0.so.29:_ZN7Imf_3_08latitudeERKNS_6HeaderE
libOpenEXR-3_0.so.29:_ZN7Imf_3_08latitudeERNS_6HeaderE
libOpenEXR-3_0.so.29:_ZN7Imf_3_08timeCodeERKNS_6HeaderE
libOpenEXR-3_0.so.29:_ZN7Imf_3_08timeCodeERNS_6HeaderE
libOpenEXR-3_0.so.29:_ZN7Imf_3_08xDensityERKNS_6HeaderE
libOpenEXR-3_0.so.29:_ZN7Imf_3_08xDensityERNS_6HeaderE
libOpenEXR-3_0.so.29:_ZN7Imf_3_09Attribute12newAttributeEPKc
libOpenEXR-3_0.so.29:_ZN7Imf_3_09Attribute21registerAttributeTypeEPKcPFPS0_vE
libOpenEXR-3_0.so.29:_ZN7Imf_3_09Attribute23unRegisterAttributeTypeEPKc
libOpenEXR-3_0.so.29:_ZN7Imf_3_09Attribute9knownTypeEPKc
libOpenEXR-3_0.so.29:_ZN7Imf_3_09AttributeC1Ev
libOpenEXR-3_0.so.29:_ZN7Imf_3_09AttributeC2Ev
libOpenEXR-3_0.so.29:_ZN7Imf_3_09AttributeD0Ev
libOpenEXR-3_0.so.29:_ZN7Imf_3_09AttributeD1Ev
libOpenEXR-3_0.so.29:_ZN7Imf_3_09AttributeD2Ev
libOpenEXR-3_0.so.29:_ZN7Imf_3_09DeepSliceC1ENS_9PixelTypeEPcmmmiidbb
libOpenEXR-3_0.so.29:_ZN7Imf_3_09DeepSliceC2ENS_9PixelTypeEPcmmmiidbb
libOpenEXR-3_0.so.29:_ZN7Imf_3_09InputFile10readPixelsEi
libOpenEXR-3_0.so.29:_ZN7Imf_3_09InputFile10readPixelsEii
libOpenEXR-3_0.so.29:_ZN7Imf_3_09InputFile11rawTileDataERiS1_S1_S1_RPKcS1_
libOpenEXR-3_0.so.29:_ZN7Imf_3_09InputFile12rawPixelDataEiRPKcRi
libOpenEXR-3_0.so.29:_ZN7Imf_3_09InputFile14setFrameBufferERKNS_11FrameBufferE
libOpenEXR-3_0.so.29:_ZN7Imf_3_09InputFileC1EPKci
libOpenEXR-3_0.so.29:_ZN7Imf_3_09InputFileC1ERNS_7IStreamEi
libOpenEXR-3_0.so.29:_ZN7Imf_3_09InputFileC2EPKci
libOpenEXR-3_0.so.29:_ZN7Imf_3_09InputFileC2ERNS_7IStreamEi
libOpenEXR-3_0.so.29:_ZN7Imf_3_09InputFileD0Ev
libOpenEXR-3_0.so.29:_ZN7Imf_3_09InputFileD1Ev
libOpenEXR-3_0.so.29:_ZN7Imf_3_09InputFileD2Ev
libOpenEXR-3_0.so.29:_ZN7Imf_3_09InputPart10readPixelsEi
libOpenEXR-3_0.so.29:_ZN7Imf_3_09InputPart10readPixelsEii
libOpenEXR-3_0.so.29:_ZN7Imf_3_09InputPart11rawTileDataERiS1_S1_S1_RPKcS1_
libOpenEXR-3_0.so.29:_ZN7Imf_3_09InputPart12rawPixelDataEiRPKcRi
libOpenEXR-3_0.so.29:_ZN7Imf_3_09InputPart14setFrameBufferERKNS_11FrameBufferE
libOpenEXR-3_0.so.29:_ZN7Imf_3_09InputPartC1ERNS_18MultiPartInputFileEi
libOpenEXR-3_0.so.29:_ZN7Imf_3_09InputPartC2ERNS_18MultiPartInputFileEi
libOpenEXR-3_0.so.29:_ZN7Imf_3_09addEnvmapERNS_6HeaderERKNS_6EnvmapE
libOpenEXR-3_0.so.29:_ZN7Imf_3_09hasEnvmapERKNS_6HeaderE
libOpenEXR-3_0.so.29:_ZN7Imf_3_09levelSizeEiiiNS_17LevelRoundingModeE
libOpenEXR-3_0.so.29:_ZN7Imf_3_09longitudeERKNS_6HeaderE
libOpenEXR-3_0.so.29:_ZN7Imf_3_09longitudeERNS_6HeaderE
libOpenEXR-3_0.so.29:_ZN7Imf_3_09multiViewB5cxx11ERKNS_6HeaderE
libOpenEXR-3_0.so.29:_ZN7Imf_3_09multiViewB5cxx11ERNS_6HeaderE
libOpenEXR-3_0.so.29:_ZN7Imf_3_09utcOffsetERKNS_6HeaderE
libOpenEXR-3_0.so.29:_ZN7Imf_3_09utcOffsetERNS_6HeaderE
libOpenEXR-3_0.so.29:_ZN7Imf_3_09wrapmodesB5cxx11ERKNS_6HeaderE
libOpenEXR-3_0.so.29:_ZN7Imf_3_09wrapmodesB5cxx11ERNS_6HeaderE
libOpenEXR-3_0.so.29:_ZNK7Imf_3_010Compressor6formatEv
libOpenEXR-3_0.so.29:_ZNK7Imf_3_010IDManifest20ChannelGroupManifest11getChannelsB5cxx11Ev
libOpenEXR-3_0.so.29:_ZNK7Imf_3_010IDManifest20ChannelGroupManifest13getComponentsB5cxx11Ev
libOpenEXR-3_0.so.29:_ZNK7Imf_3_010IDManifest20ChannelGroupManifest3endEv
libOpenEXR-3_0.so.29:_ZNK7Imf_3_010IDManifest20ChannelGroupManifest4findEm
libOpenEXR-3_0.so.29:_ZNK7Imf_3_010IDManifest20ChannelGroupManifest4sizeEv
libOpenEXR-3_0.so.29:_ZNK7Imf_3_010IDManifest20ChannelGroupManifest5beginEv
libOpenEXR-3_0.so.29:_ZNK7Imf_3_010IDManifest20ChannelGroupManifesteqERKS1_
libOpenEXR-3_0.so.29:_ZNK7Imf_3_010IDManifest4findERKNSt7__cxx1112basic_stringIcSt11char_traitsIcESaIcEEE
libOpenEXR-3_0.so.29:_ZNK7Imf_3_010IDManifest4sizeEv
libOpenEXR-3_0.so.29:_ZNK7Imf_3_010IDManifest9serializeERSt6vectorIcSaIcEE
libOpenEXR-3_0.so.29:_ZNK7Imf_3_010IDManifesteqERKS0_
libOpenEXR-3_0.so.29:_ZNK7Imf_3_010IDManifestixEm
libOpenEXR-3_0.so.29:_ZNK7Imf_3_010IDManifestneERKS0_
libOpenEXR-3_0.so.29:_ZNK7Imf_3_010OutputFile11frameBufferEv
libOpenEXR-3_0.so.29:_ZNK7Imf_3_010OutputFile15currentScanLineEv
libOpenEXR-3_0.so.29:_ZNK7Imf_3_010OutputFile6headerEv
libOpenEXR-3_0.so.29:_ZNK7Imf_3_010OutputFile8fileNameEv
libOpenEXR-3_0.so.29:_ZNK7Imf_3_010OutputPart11frameBufferEv
libOpenEXR-3_0.so.29:_ZNK7Imf_3_010OutputPart15currentScanLineEv
libOpenEXR-3_0.so.29:_ZNK7Imf_3_010OutputPart6headerEv
libOpenEXR-3_0.so.29:_ZNK7Imf_3_010OutputPart8fileNameEv
libOpenEXR-3_0.so.29:_ZNK7Imf_3_011ChannelList11findChannelEPKc
libOpenEXR-3_0.so.29:_ZNK7Imf_3_011ChannelList11findChannelERKNSt7__cxx1112basic_stringIcSt11char_traitsIcESaIcEEE
libOpenEXR-3_0.so.29:_ZNK7Imf_3_011ChannelList15channelsInLayerERKNSt7__cxx1112basic_stringIcSt11char_traitsIcESaIcEEERNS0_13ConstIteratorESA_
libOpenEXR-3_0.so.29:_ZNK7Imf_3_011ChannelList18channelsWithPrefixEPKcRNS0_13ConstIteratorES4_
libOpenEXR-3_0.so.29:_ZNK7Imf_3_011ChannelList18channelsWithPrefixERKNSt7__cxx1112basic_stringIcSt11char_traitsIcESaIcEEERNS0_13ConstIteratorESA_
libOpenEXR-3_0.so.29:_ZNK7Imf_3_011ChannelList3endEv
libOpenEXR-3_0.so.29:_ZNK7Imf_3_011ChannelList4findEPKc
libOpenEXR-3_0.so.29:_ZNK7Imf_3_011ChannelList4findERKNSt7__cxx1112basic_stringIcSt11char_traitsIcESaIcEEE
libOpenEXR-3_0.so.29:_ZNK7Imf_3_011ChannelList5beginEv
libOpenEXR-3_0.so.29:_ZNK7Imf_3_011ChannelList6layersERSt3setINSt7__cxx1112basic_stringIcSt11char_traitsIcESaIcEEESt4lessIS7_ESaIS7_EE
libOpenEXR-3_0.so.29:_ZNK7Imf_3_011ChannelListeqERKS0_
libOpenEXR-3_0.so.29:_ZNK7Imf_3_011ChannelListixEPKc
libOpenEXR-3_0.so.29:_ZNK7Imf_3_011ChannelListixERKNSt7__cxx1112basic_stringIcSt11char_traitsIcESaIcEEE
libOpenEXR-3_0.so.29:_ZNK7Imf_3_011FrameBuffer3endEv
libOpenEXR-3_0.so.29:_ZNK7Imf_3_011FrameBuffer4findEPKc
libOpenEXR-3_0.so.29:_ZNK7Imf_3_011FrameBuffer4findERKNSt7__cxx1112basic_stringIcSt11char_traitsIcESaIcEEE
libOpenEXR-3_0.so.29:_ZNK7Imf_3_011FrameBuffer5beginEv
libOpenEXR-3_0.so.29:_ZNK7Imf_3_011FrameBuffer9findSliceEPKc
libOpenEXR-3_0.so.29:_ZNK7Imf_3_011FrameBuffer9findSliceERKNSt7__cxx1112basic_stringIcSt11char_traitsIcESaIcEEE
libOpenEXR-3_0.so.29:_ZNK7Imf_3_011FrameBufferixEPKc
libOpenEXR-3_0.so.29:_ZNK7Imf_3_011FrameBufferixERKNSt7__cxx1112basic_stringIcSt11char_traitsIcESaIcEEE
libOpenEXR-3_0.so.29:_ZNK7Imf_3_011StdISStream3strB5cxx11Ev
libOpenEXR-3_0.so.29:_ZNK7Imf_3_011StdOSStream3strB5cxx11Ev
libOpenEXR-3_0.so.29:_ZNK7Imf_3_011TileOffsets10getOffsetsEv
libOpenEXR-3_0.so.29:_ZNK7Imf_3_011TileOffsets11isValidTileEiiii
libOpenEXR-3_0.so.29:_ZNK7Imf_3_011TileOffsets12getTileOrderEPiS1_S1_S1_
libOpenEXR-3_0.so.29:_ZNK7Imf_3_011TileOffsets7isEmptyEv
libOpenEXR-3_0.so.29:_ZNK7Imf_3_011TileOffsets7writeToERNS_7OStreamE
libOpenEXR-3_0.so.29:_ZNK7Imf_3_011TileOffsetsclEiii
libOpenEXR-3_0.so.29:_ZNK7Imf_3_011TileOffsetsclEiiii
libOpenEXR-3_0.so.29:_ZNK7Imf_3_013AcesInputFile10dataWindowEv
libOpenEXR-3_0.so.29:_ZNK7Imf_3_013AcesInputFile10isCompleteEv
libOpenEXR-3_0.so.29:_ZNK7Imf_3_013AcesInputFile11compressionEv
libOpenEXR-3_0.so.29:_ZNK7Imf_3_013AcesInputFile13displayWindowEv
libOpenEXR-3_0.so.29:_ZNK7Imf_3_013AcesInputFile16pixelAspectRatioEv
libOpenEXR-3_0.so.29:_ZNK7Imf_3_013AcesInputFile17screenWindowWidthEv
libOpenEXR-3_0.so.29:_ZNK7Imf_3_013AcesInputFile18screenWindowCenterEv
libOpenEXR-3_0.so.29:_ZNK7Imf_3_013AcesInputFile6headerEv
libOpenEXR-3_0.so.29:_ZNK7Imf_3_013AcesInputFile7versionEv
libOpenEXR-3_0.so.29:_ZNK7Imf_3_013AcesInputFile8channelsEv
libOpenEXR-3_0.so.29:_ZNK7Imf_3_013AcesInputFile8fileNameEv
libOpenEXR-3_0.so.29:_ZNK7Imf_3_013AcesInputFile9lineOrderEv
libOpenEXR-3_0.so.29:_ZNK7Imf_3_013RgbaInputFile10dataWindowEv
libOpenEXR-3_0.so.29:_ZNK7Imf_3_013RgbaInputFile10isCompleteEv
libOpenEXR-3_0.so.29:_ZNK7Imf_3_013RgbaInputFile11compressionEv
libOpenEXR-3_0.so.29:_ZNK7Imf_3_013RgbaInputFile11frameBufferEv
libOpenEXR-3_0.so.29:_ZNK7Imf_3_013RgbaInputFile13displayWindowEv
libOpenEXR-3_0.so.29:_ZNK7Imf_3_013RgbaInputFile16pixelAspectRatioEv
libOpenEXR-3_0.so.29:_ZNK7Imf_3_013RgbaInputFile17screenWindowWidthEv
libOpenEXR-3_0.so.29:_ZNK7Imf_3_013RgbaInputFile18screenWindowCenterEv
libOpenEXR-3_0.so.29:_ZNK7Imf_3_013RgbaInputFile6headerEv
libOpenEXR-3_0.so.29:_ZNK7Imf_3_013RgbaInputFile7versionEv
libOpenEXR-3_0.so.29:_ZNK7Imf_3_013RgbaInputFile8channelsEv
libOpenEXR-3_0.so.29:_ZNK7Imf_3_013RgbaInputFile8fileNameEv
libOpenEXR-3_0.so.29:_ZNK7Imf_3_013RgbaInputFile9lineOrderEv
libOpenEXR-3_0.so.29:_ZNK7Imf_3_014AcesOutputFile10dataWindowEv
libOpenEXR-3_0.so.29:_ZNK7Imf_3_014AcesOutputFile11compressionEv
libOpenEXR-3_0.so.29:_ZNK7Imf_3_014AcesOutputFile13displayWindowEv
libOpenEXR-3_0.so.29:_ZNK7Imf_3_014AcesOutputFile15currentScanLineEv
libOpenEXR-3_0.so.29:_ZNK7Imf_3_014AcesOutputFile16pixelAspectRatioEv
libOpenEXR-3_0.so.29:_ZNK7Imf_3_014AcesOutputFile17screenWindowWidthEv
libOpenEXR-3_0.so.29:_ZNK7Imf_3_014AcesOutputFile18screenWindowCenterEv
libOpenEXR-3_0.so.29:_ZNK7Imf_3_014AcesOutputFile6headerEv
libOpenEXR-3_0.so.29:_ZNK7Imf_3_014AcesOutputFile8channelsEv
libOpenEXR-3_0.so.29:_ZNK7Imf_3_014AcesOutputFile9lineOrderEv
libOpenEXR-3_0.so.29:_ZNK7Imf_3_014ChromaticitieseqERKS0_
libOpenEXR-3_0.so.29:_ZNK7Imf_3_014ChromaticitiesneERKS0_
libOpenEXR-3_0.so.29:_ZNK7Imf_3_014RgbaOutputFile10dataWindowEv
libOpenEXR-3_0.so.29:_ZNK7Imf_3_014RgbaOutputFile11compressionEv
libOpenEXR-3_0.so.29:_ZNK7Imf_3_014RgbaOutputFile11frameBufferEv
libOpenEXR-3_0.so.29:_ZNK7Imf_3_014RgbaOutputFile13displayWindowEv
libOpenEXR-3_0.so.29:_ZNK7Imf_3_014RgbaOutputFile15currentScanLineEv
libOpenEXR-3_0.so.29:_ZNK7Imf_3_014RgbaOutputFile16pixelAspectRatioEv
libOpenEXR-3_0.so.29:_ZNK7Imf_3_014RgbaOutputFile17screenWindowWidthEv
libOpenEXR-3_0.so.29:_ZNK7Imf_3_014RgbaOutputFile18screenWindowCenterEv
libOpenEXR-3_0.so.29:_ZNK7Imf_3_014RgbaOutputFile6headerEv
libOpenEXR-3_0.so.29:_ZNK7Imf_3_014RgbaOutputFile8channelsEv
libOpenEXR-3_0.so.29:_ZNK7Imf_3_014RgbaOutputFile9lineOrderEv
libOpenEXR-3_0.so.29:_ZNK7Imf_3_014TiledInputFile10isCompleteEv
libOpenEXR-3_0.so.29:_ZNK7Imf_3_014TiledInputFile10levelWidthEi
libOpenEXR-3_0.so.29:_ZNK7Imf_3_014TiledInputFile10numXLevelsEv
libOpenEXR-3_0.so.29:_ZNK7Imf_3_014TiledInputFile10numYLevelsEv
libOpenEXR-3_0.so.29:_ZNK7Imf_3_014TiledInputFile11frameBufferEv
libOpenEXR-3_0.so.29:_ZNK7Imf_3_014TiledInputFile11levelHeightEi
libOpenEXR-3_0.so.29:_ZNK7Imf_3_014TiledInputFile12isValidLevelEii
libOpenEXR-3_0.so.29:_ZNK7Imf_3_014TiledInputFile17dataWindowForTileEiii
libOpenEXR-3_0.so.29:_ZNK7Imf_3_014TiledInputFile17dataWindowForTileEiiii
libOpenEXR-3_0.so.29:_ZNK7Imf_3_014TiledInputFile17levelRoundingModeEv
libOpenEXR-3_0.so.29:_ZNK7Imf_3_014TiledInputFile18dataWindowForLevelEi
libOpenEXR-3_0.so.29:_ZNK7Imf_3_014TiledInputFile18dataWindowForLevelEii
libOpenEXR-3_0.so.29:_ZNK7Imf_3_014TiledInputFile6headerEv
libOpenEXR-3_0.so.29:_ZNK7Imf_3_014TiledInputFile7versionEv
libOpenEXR-3_0.so.29:_ZNK7Imf_3_014TiledInputFile8fileNameEv
libOpenEXR-3_0.so.29:_ZNK7Imf_3_014TiledInputFile9levelModeEv
libOpenEXR-3_0.so.29:_ZNK7Imf_3_014TiledInputFile9numLevelsEv
libOpenEXR-3_0.so.29:_ZNK7Imf_3_014TiledInputFile9numXTilesEi
libOpenEXR-3_0.so.29:_ZNK7Imf_3_014TiledInputFile9numYTilesEi
libOpenEXR-3_0.so.29:_ZNK7Imf_3_014TiledInputFile9tileXSizeEv
libOpenEXR-3_0.so.29:_ZNK7Imf_3_014TiledInputFile9tileYSizeEv
libOpenEXR-3_0.so.29:_ZNK7Imf_3_014TiledInputPart10isCompleteEv
libOpenEXR-3_0.so.29:_ZNK7Imf_3_014TiledInputPart10levelWidthEi
libOpenEXR-3_0.so.29:_ZNK7Imf_3_014TiledInputPart10numXLevelsEv
libOpenEXR-3_0.so.29:_ZNK7Imf_3_014TiledInputPart10numYLevelsEv
libOpenEXR-3_0.so.29:_ZNK7Imf_3_014TiledInputPart11frameBufferEv
libOpenEXR-3_0.so.29:_ZNK7Imf_3_014TiledInputPart11levelHeightEi
libOpenEXR-3_0.so.29:_ZNK7Imf_3_014TiledInputPart12isValidLevelEii
libOpenEXR-3_0.so.29:_ZNK7Imf_3_014TiledInputPart17dataWindowForTileEiii
libOpenEXR-3_0.so.29:_ZNK7Imf_3_014TiledInputPart17dataWindowForTileEiiii
libOpenEXR-3_0.so.29:_ZNK7Imf_3_014TiledInputPart17levelRoundingModeEv
libOpenEXR-3_0.so.29:_ZNK7Imf_3_014TiledInputPart18dataWindowForLevelEi
libOpenEXR-3_0.so.29:_ZNK7Imf_3_014TiledInputPart18dataWindowForLevelEii
libOpenEXR-3_0.so.29:_ZNK7Imf_3_014TiledInputPart6headerEv
libOpenEXR-3_0.so.29:_ZNK7Imf_3_014TiledInputPart7versionEv
libOpenEXR-3_0.so.29:_ZNK7Imf_3_014TiledInputPart8fileNameEv
libOpenEXR-3_0.so.29:_ZNK7Imf_3_014TiledInputPart9levelModeEv
libOpenEXR-3_0.so.29:_ZNK7Imf_3_014TiledInputPart9numLevelsEv
libOpenEXR-3_0.so.29:_ZNK7Imf_3_014TiledInputPart9numXTilesEi
libOpenEXR-3_0.so.29:_ZNK7Imf_3_014TiledInputPart9numYTilesEi
libOpenEXR-3_0.so.29:_ZNK7Imf_3_014TiledInputPart9tileXSizeEv
libOpenEXR-3_0.so.29:_ZNK7Imf_3_014TiledInputPart9tileYSizeEv
libOpenEXR-3_0.so.29:_ZNK7Imf_3_014TypedAttributeIN9Imath_3_03BoxINS1_4Vec2IfEEEEE12writeValueToERNS_7OStreamEi
libOpenEXR-3_0.so.29:_ZNK7Imf_3_014TypedAttributeIN9Imath_3_03BoxINS1_4Vec2IiEEEEE12writeValueToERNS_7OStreamEi
libOpenEXR-3_0.so.29:_ZNK7Imf_3_014TypedAttributeIN9Imath_3_04Vec2IdEEE12writeValueToERNS_7OStreamEi
libOpenEXR-3_0.so.29:_ZNK7Imf_3_014TypedAttributeIN9Imath_3_04Vec2IfEEE12writeValueToERNS_7OStreamEi
libOpenEXR-3_0.so.29:_ZNK7Imf_3_014TypedAttributeIN9Imath_3_04Vec2IiEEE12writeValueToERNS_7OStreamEi
libOpenEXR-3_0.so.29:_ZNK7Imf_3_014TypedAttributeIN9Imath_3_04Vec3IdEEE12writeValueToERNS_7OStreamEi
libOpenEXR-3_0.so.29:_ZNK7Imf_3_014TypedAttributeIN9Imath_3_04Vec3IfEEE12writeValueToERNS_7OStreamEi
libOpenEXR-3_0.so.29:_ZNK7Imf_3_014TypedAttributeIN9Imath_3_04Vec3IiEEE12writeValueToERNS_7OStreamEi
libOpenEXR-3_0.so.29:_ZNK7Imf_3_014TypedAttributeIN9Imath_3_08Matrix33IdEEE12writeValueToERNS_7OStreamEi
libOpenEXR-3_0.so.29:_ZNK7Imf_3_014TypedAttributeIN9Imath_3_08Matrix33IfEEE12writeValueToERNS_7OStreamEi
libOpenEXR-3_0.so.29:_ZNK7Imf_3_014TypedAttributeIN9Imath_3_08Matrix44IdEEE12writeValueToERNS_7OStreamEi
libOpenEXR-3_0.so.29:_ZNK7Imf_3_014TypedAttributeIN9Imath_3_08Matrix44IfEEE12writeValueToERNS_7OStreamEi
libOpenEXR-3_0.so.29:_ZNK7Imf_3_014TypedAttributeINS_11ChannelListEE12writeValueToERNS_7OStreamEi
libOpenEXR-3_0.so.29:_ZNK7Imf_3_014TypedAttributeINS_11CompressionEE12writeValueToERNS_7OStreamEi
libOpenEXR-3_0.so.29:_ZNK7Imf_3_014TypedAttributeINS_12PreviewImageEE12writeValueToERNS_7OStreamEi
libOpenEXR-3_0.so.29:_ZNK7Imf_3_014TypedAttributeINS_14ChromaticitiesEE12writeValueToERNS_7OStreamEi
libOpenEXR-3_0.so.29:_ZNK7Imf_3_014TypedAttributeINS_14DeepImageStateEE12writeValueToERNS_7OStreamEi
libOpenEXR-3_0.so.29:_ZNK7Imf_3_014TypedAttributeINS_15TileDescriptionEE12writeValueToERNS_7OStreamEi
libOpenEXR-3_0.so.29:_ZNK7Imf_3_014TypedAttributeINS_20CompressedIDManifestEE12writeValueToERNS_7OStreamEi
libOpenEXR-3_0.so.29:_ZNK7Imf_3_014TypedAttributeINS_6EnvmapEE12writeValueToERNS_7OStreamEi
libOpenEXR-3_0.so.29:_ZNK7Imf_3_014TypedAttributeINS_7KeyCodeEE12writeValueToERNS_7OStreamEi
libOpenEXR-3_0.so.29:_ZNK7Imf_3_014TypedAttributeINS_8RationalEE12writeValueToERNS_7OStreamEi
libOpenEXR-3_0.so.29:_ZNK7Imf_3_014TypedAttributeINS_8TimeCodeEE12writeValueToERNS_7OStreamEi
libOpenEXR-3_0.so.29:_ZNK7Imf_3_014TypedAttributeINS_9LineOrderEE12writeValueToERNS_7OStreamEi
libOpenEXR-3_0.so.29:_ZNK7Imf_3_014TypedAttributeINSt7__cxx1112basic_stringIcSt11char_traitsIcESaIcEEEE12writeValueToERNS_7OStreamEi
libOpenEXR-3_0.so.29:_ZNK7Imf_3_014TypedAttributeISt6vectorINSt7__cxx1112basic_stringIcSt11char_traitsIcESaIcEEESaIS7_EEE12writeValueToERNS_7OStreamEi
libOpenEXR-3_0.so.29:_ZNK7Imf_3_014TypedAttributeISt6vectorIfSaIfEEE12writeValueToERNS_7OStreamEi
libOpenEXR-3_0.so.29:_ZNK7Imf_3_015DeepFrameBuffer19getSampleCountSliceEv
libOpenEXR-3_0.so.29:_ZNK7Imf_3_015DeepFrameBuffer3endEv
libOpenEXR-3_0.so.29:_ZNK7Imf_3_015DeepFrameBuffer4findEPKc
libOpenEXR-3_0.so.29:_ZNK7Imf_3_015DeepFrameBuffer4findERKNSt7__cxx1112basic_stringIcSt11char_traitsIcESaIcEEE
libOpenEXR-3_0.so.29:_ZNK7Imf_3_015DeepFrameBuffer5beginEv
libOpenEXR-3_0.so.29:_ZNK7Imf_3_015DeepFrameBuffer9findSliceEPKc
libOpenEXR-3_0.so.29:_ZNK7Imf_3_015DeepFrameBuffer9findSliceERKNSt7__cxx1112basic_stringIcSt11char_traitsIcESaIcEEE
libOpenEXR-3_0.so.29:_ZNK7Imf_3_015DeepFrameBufferixEPKc
libOpenEXR-3_0.so.29:_ZNK7Imf_3_015DeepFrameBufferixERKNSt7__cxx1112basic_stringIcSt11char_traitsIcESaIcEEE
libOpenEXR-3_0.so.29:_ZNK7Imf_3_015OpaqueAttribute12writeValueToERNS_7OStreamEi
libOpenEXR-3_0.so.29:_ZNK7Imf_3_015OpaqueAttribute4copyEv
libOpenEXR-3_0.so.29:_ZNK7Imf_3_015OpaqueAttribute8typeNameEv
libOpenEXR-3_0.so.29:_ZNK7Imf_3_015TiledOutputFile10levelWidthEi
libOpenEXR-3_0.so.29:_ZNK7Imf_3_015TiledOutputFile10numXLevelsEv
libOpenEXR-3_0.so.29:_ZNK7Imf_3_015TiledOutputFile10numYLevelsEv
libOpenEXR-3_0.so.29:_ZNK7Imf_3_015TiledOutputFile11frameBufferEv
libOpenEXR-3_0.so.29:_ZNK7Imf_3_015TiledOutputFile11levelHeightEi
libOpenEXR-3_0.so.29:_ZNK7Imf_3_015TiledOutputFile12isValidLevelEii
libOpenEXR-3_0.so.29:_ZNK7Imf_3_015TiledOutputFile17dataWindowForTileEiii
libOpenEXR-3_0.so.29:_ZNK7Imf_3_015TiledOutputFile17dataWindowForTileEiiii
libOpenEXR-3_0.so.29:_ZNK7Imf_3_015TiledOutputFile17levelRoundingModeEv
libOpenEXR-3_0.so.29:_ZNK7Imf_3_015TiledOutputFile18dataWindowForLevelEi
libOpenEXR-3_0.so.29:_ZNK7Imf_3_015TiledOutputFile18dataWindowForLevelEii
libOpenEXR-3_0.so.29:_ZNK7Imf_3_015TiledOutputFile6headerEv
libOpenEXR-3_0.so.29:_ZNK7Imf_3_015TiledOutputFile8fileNameEv
libOpenEXR-3_0.so.29:_ZNK7Imf_3_015TiledOutputFile9levelModeEv
libOpenEXR-3_0.so.29:_ZNK7Imf_3_015TiledOutputFile9numLevelsEv
libOpenEXR-3_0.so.29:_ZNK7Imf_3_015TiledOutputFile9numXTilesEi
libOpenEXR-3_0.so.29:_ZNK7Imf_3_015TiledOutputFile9numYTilesEi
libOpenEXR-3_0.so.29:_ZNK7Imf_3_015TiledOutputFile9tileXSizeEv
libOpenEXR-3_0.so.29:_ZNK7Imf_3_015TiledOutputFile9tileYSizeEv
libOpenEXR-3_0.so.29:_ZNK7Imf_3_015TiledOutputPart10levelWidthEi
libOpenEXR-3_0.so.29:_ZNK7Imf_3_015TiledOutputPart10numXLevelsEv
libOpenEXR-3_0.so.29:_ZNK7Imf_3_015TiledOutputPart10numYLevelsEv
libOpenEXR-3_0.so.29:_ZNK7Imf_3_015TiledOutputPart11frameBufferEv
libOpenEXR-3_0.so.29:_ZNK7Imf_3_015TiledOutputPart11levelHeightEi
libOpenEXR-3_0.so.29:_ZNK7Imf_3_015TiledOutputPart12isValidLevelEii
libOpenEXR-3_0.so.29:_ZNK7Imf_3_015TiledOutputPart17dataWindowForTileEiii
libOpenEXR-3_0.so.29:_ZNK7Imf_3_015TiledOutputPart17dataWindowForTileEiiii
libOpenEXR-3_0.so.29:_ZNK7Imf_3_015TiledOutputPart17levelRoundingModeEv
libOpenEXR-3_0.so.29:_ZNK7Imf_3_015TiledOutputPart18dataWindowForLevelEi
libOpenEXR-3_0.so.29:_ZNK7Imf_3_015TiledOutputPart18dataWindowForLevelEii
libOpenEXR-3_0.so.29:_ZNK7Imf_3_015TiledOutputPart6headerEv
libOpenEXR-3_0.so.29:_ZNK7Imf_3_015TiledOutputPart8fileNameEv
libOpenEXR-3_0.so.29:_ZNK7Imf_3_015TiledOutputPart9levelModeEv
libOpenEXR-3_0.so.29:_ZNK7Imf_3_015TiledOutputPart9numLevelsEv
libOpenEXR-3_0.so.29:_ZNK7Imf_3_015TiledOutputPart9numXTilesEi
libOpenEXR-3_0.so.29:_ZNK7Imf_3_015TiledOutputPart9numYTilesEi
libOpenEXR-3_0.so.29:_ZNK7Imf_3_015TiledOutputPart9tileXSizeEv
libOpenEXR-3_0.so.29:_ZNK7Imf_3_015TiledOutputPart9tileYSizeEv
libOpenEXR-3_0.so.29:_ZNK7Imf_3_017ScanLineInputFile10isCompleteEv
libOpenEXR-3_0.so.29:_ZNK7Imf_3_017ScanLineInputFile11frameBufferEv
libOpenEXR-3_0.so.29:_ZNK7Imf_3_017ScanLineInputFile20rawPixelDataToBufferEiPcRi
libOpenEXR-3_0.so.29:_ZNK7Imf_3_017ScanLineInputFile21isOptimizationEnabledEv
libOpenEXR-3_0.so.29:_ZNK7Imf_3_017ScanLineInputFile6headerEv
libOpenEXR-3_0.so.29:_ZNK7Imf_3_017ScanLineInputFile7versionEv
libOpenEXR-3_0.so.29:_ZNK7Imf_3_017ScanLineInputFile8fileNameEv
libOpenEXR-3_0.so.29:_ZNK7Imf_3_018DeepTiledInputFile10isCompleteEv
libOpenEXR-3_0.so.29:_ZNK7Imf_3_018DeepTiledInputFile10levelWidthEi
libOpenEXR-3_0.so.29:_ZNK7Imf_3_018DeepTiledInputFile10numXLevelsEv
libOpenEXR-3_0.so.29:_ZNK7Imf_3_018DeepTiledInputFile10numYLevelsEv
libOpenEXR-3_0.so.29:_ZNK7Imf_3_018DeepTiledInputFile10totalTilesEv
libOpenEXR-3_0.so.29:_ZNK7Imf_3_018DeepTiledInputFile11frameBufferEv
libOpenEXR-3_0.so.29:_ZNK7Imf_3_018DeepTiledInputFile11isValidTileEiiii
libOpenEXR-3_0.so.29:_ZNK7Imf_3_018DeepTiledInputFile11levelHeightEi
libOpenEXR-3_0.so.29:_ZNK7Imf_3_018DeepTiledInputFile11rawTileDataERiS1_S1_S1_PcRm
libOpenEXR-3_0.so.29:_ZNK7Imf_3_018DeepTiledInputFile12getTileOrderEPiS1_S1_S1_
libOpenEXR-3_0.so.29:_ZNK7Imf_3_018DeepTiledInputFile12isValidLevelEii
libOpenEXR-3_0.so.29:_ZNK7Imf_3_018DeepTiledInputFile17dataWindowForTileEiii
libOpenEXR-3_0.so.29:_ZNK7Imf_3_018DeepTiledInputFile17dataWindowForTileEiiii
libOpenEXR-3_0.so.29:_ZNK7Imf_3_018DeepTiledInputFile17levelRoundingModeEv
libOpenEXR-3_0.so.29:_ZNK7Imf_3_018DeepTiledInputFile18dataWindowForLevelEi
libOpenEXR-3_0.so.29:_ZNK7Imf_3_018DeepTiledInputFile18dataWindowForLevelEii
libOpenEXR-3_0.so.29:_ZNK7Imf_3_018DeepTiledInputFile6headerEv
libOpenEXR-3_0.so.29:_ZNK7Imf_3_018DeepTiledInputFile7versionEv
libOpenEXR-3_0.so.29:_ZNK7Imf_3_018DeepTiledInputFile8fileNameEv
libOpenEXR-3_0.so.29:_ZNK7Imf_3_018DeepTiledInputFile9levelModeEv
libOpenEXR-3_0.so.29:_ZNK7Imf_3_018DeepTiledInputFile9numLevelsEv
libOpenEXR-3_0.so.29:_ZNK7Imf_3_018DeepTiledInputFile9numXTilesEi
libOpenEXR-3_0.so.29:_ZNK7Imf_3_018DeepTiledInputFile9numYTilesEi
libOpenEXR-3_0.so.29:_ZNK7Imf_3_018DeepTiledInputFile9tileXSizeEv
libOpenEXR-3_0.so.29:_ZNK7Imf_3_018DeepTiledInputFile9tileYSizeEv
libOpenEXR-3_0.so.29:_ZNK7Imf_3_018DeepTiledInputPart10isCompleteEv
libOpenEXR-3_0.so.29:_ZNK7Imf_3_018DeepTiledInputPart10levelWidthEi
libOpenEXR-3_0.so.29:_ZNK7Imf_3_018DeepTiledInputPart10numXLevelsEv
libOpenEXR-3_0.so.29:_ZNK7Imf_3_018DeepTiledInputPart10numYLevelsEv
libOpenEXR-3_0.so.29:_ZNK7Imf_3_018DeepTiledInputPart11frameBufferEv
libOpenEXR-3_0.so.29:_ZNK7Imf_3_018DeepTiledInputPart11levelHeightEi
libOpenEXR-3_0.so.29:_ZNK7Imf_3_018DeepTiledInputPart11rawTileDataERiS1_S1_S1_PcRm
libOpenEXR-3_0.so.29:_ZNK7Imf_3_018DeepTiledInputPart12isValidLevelEii
libOpenEXR-3_0.so.29:_ZNK7Imf_3_018DeepTiledInputPart17dataWindowForTileEiii
libOpenEXR-3_0.so.29:_ZNK7Imf_3_018DeepTiledInputPart17dataWindowForTileEiiii
libOpenEXR-3_0.so.29:_ZNK7Imf_3_018DeepTiledInputPart17levelRoundingModeEv
libOpenEXR-3_0.so.29:_ZNK7Imf_3_018DeepTiledInputPart18dataWindowForLevelEi
libOpenEXR-3_0.so.29:_ZNK7Imf_3_018DeepTiledInputPart18dataWindowForLevelEii
libOpenEXR-3_0.so.29:_ZNK7Imf_3_018DeepTiledInputPart6headerEv
libOpenEXR-3_0.so.29:_ZNK7Imf_3_018DeepTiledInputPart7versionEv
libOpenEXR-3_0.so.29:_ZNK7Imf_3_018DeepTiledInputPart8fileNameEv
libOpenEXR-3_0.so.29:_ZNK7Imf_3_018DeepTiledInputPart9levelModeEv
libOpenEXR-3_0.so.29:_ZNK7Imf_3_018DeepTiledInputPart9numLevelsEv
libOpenEXR-3_0.so.29:_ZNK7Imf_3_018DeepTiledInputPart9numXTilesEi
libOpenEXR-3_0.so.29:_ZNK7Imf_3_018DeepTiledInputPart9numYTilesEi
libOpenEXR-3_0.so.29:_ZNK7Imf_3_018DeepTiledInputPart9tileXSizeEv
libOpenEXR-3_0.so.29:_ZNK7Imf_3_018DeepTiledInputPart9tileYSizeEv
libOpenEXR-3_0.so.29:_ZNK7Imf_3_018MultiPartInputFile12partCompleteEi
libOpenEXR-3_0.so.29:_ZNK7Imf_3_018MultiPartInputFile5partsEv
libOpenEXR-3_0.so.29:_ZNK7Imf_3_018MultiPartInputFile6headerEi
libOpenEXR-3_0.so.29:_ZNK7Imf_3_018MultiPartInputFile7versionEv
libOpenEXR-3_0.so.29:_ZNK7Imf_3_018TiledRgbaInputFile10dataWindowEv
libOpenEXR-3_0.so.29:_ZNK7Imf_3_018TiledRgbaInputFile10isCompleteEv
libOpenEXR-3_0.so.29:_ZNK7Imf_3_018TiledRgbaInputFile10levelWidthEi
libOpenEXR-3_0.so.29:_ZNK7Imf_3_018TiledRgbaInputFile10numXLevelsEv
libOpenEXR-3_0.so.29:_ZNK7Imf_3_018TiledRgbaInputFile10numYLevelsEv
libOpenEXR-3_0.so.29:_ZNK7Imf_3_018TiledRgbaInputFile11compressionEv
libOpenEXR-3_0.so.29:_ZNK7Imf_3_018TiledRgbaInputFile11frameBufferEv
libOpenEXR-3_0.so.29:_ZNK7Imf_3_018TiledRgbaInputFile11levelHeightEi
libOpenEXR-3_0.so.29:_ZNK7Imf_3_018TiledRgbaInputFile12isValidLevelEii
libOpenEXR-3_0.so.29:_ZNK7Imf_3_018TiledRgbaInputFile13displayWindowEv
libOpenEXR-3_0.so.29:_ZNK7Imf_3_018TiledRgbaInputFile16pixelAspectRatioEv
libOpenEXR-3_0.so.29:_ZNK7Imf_3_018TiledRgbaInputFile17dataWindowForTileEiii
libOpenEXR-3_0.so.29:_ZNK7Imf_3_018TiledRgbaInputFile17dataWindowForTileEiiii
libOpenEXR-3_0.so.29:_ZNK7Imf_3_018TiledRgbaInputFile17levelRoundingModeEv
libOpenEXR-3_0.so.29:_ZNK7Imf_3_018TiledRgbaInputFile17screenWindowWidthEv
libOpenEXR-3_0.so.29:_ZNK7Imf_3_018TiledRgbaInputFile18dataWindowForLevelEi
libOpenEXR-3_0.so.29:_ZNK7Imf_3_018TiledRgbaInputFile18dataWindowForLevelEii
libOpenEXR-3_0.so.29:_ZNK7Imf_3_018TiledRgbaInputFile18screenWindowCenterEv
libOpenEXR-3_0.so.29:_ZNK7Imf_3_018TiledRgbaInputFile6headerEv
libOpenEXR-3_0.so.29:_ZNK7Imf_3_018TiledRgbaInputFile7versionEv
libOpenEXR-3_0.so.29:_ZNK7Imf_3_018TiledRgbaInputFile8channelsEv
libOpenEXR-3_0.so.29:_ZNK7Imf_3_018TiledRgbaInputFile8fileNameEv
libOpenEXR-3_0.so.29:_ZNK7Imf_3_018TiledRgbaInputFile9levelModeEv
libOpenEXR-3_0.so.29:_ZNK7Imf_3_018TiledRgbaInputFile9lineOrderEv
libOpenEXR-3_0.so.29:_ZNK7Imf_3_018TiledRgbaInputFile9numLevelsEv
libOpenEXR-3_0.so.29:_ZNK7Imf_3_018TiledRgbaInputFile9numXTilesEi
libOpenEXR-3_0.so.29:_ZNK7Imf_3_018TiledRgbaInputFile9numYTilesEi
libOpenEXR-3_0.so.29:_ZNK7Imf_3_018TiledRgbaInputFile9tileXSizeEv
libOpenEXR-3_0.so.29:_ZNK7Imf_3_018TiledRgbaInputFile9tileYSizeEv
libOpenEXR-3_0.so.29:_ZNK7Imf_3_019DeepTiledOutputFile10levelWidthEi
libOpenEXR-3_0.so.29:_ZNK7Imf_3_019DeepTiledOutputFile10numXLevelsEv
libOpenEXR-3_0.so.29:_ZNK7Imf_3_019DeepTiledOutputFile10numYLevelsEv
libOpenEXR-3_0.so.29:_ZNK7Imf_3_019DeepTiledOutputFile11frameBufferEv
libOpenEXR-3_0.so.29:_ZNK7Imf_3_019DeepTiledOutputFile11isValidTileEiiii
libOpenEXR-3_0.so.29:_ZNK7Imf_3_019DeepTiledOutputFile11levelHeightEi
libOpenEXR-3_0.so.29:_ZNK7Imf_3_019DeepTiledOutputFile12isValidLevelEii
libOpenEXR-3_0.so.29:_ZNK7Imf_3_019DeepTiledOutputFile17dataWindowForTileEiii
libOpenEXR-3_0.so.29:_ZNK7Imf_3_019DeepTiledOutputFile17dataWindowForTileEiiii
libOpenEXR-3_0.so.29:_ZNK7Imf_3_019DeepTiledOutputFile17levelRoundingModeEv
libOpenEXR-3_0.so.29:_ZNK7Imf_3_019DeepTiledOutputFile18dataWindowForLevelEi
libOpenEXR-3_0.so.29:_ZNK7Imf_3_019DeepTiledOutputFile18dataWindowForLevelEii
libOpenEXR-3_0.so.29:_ZNK7Imf_3_019DeepTiledOutputFile6headerEv
libOpenEXR-3_0.so.29:_ZNK7Imf_3_019DeepTiledOutputFile8fileNameEv
libOpenEXR-3_0.so.29:_ZNK7Imf_3_019DeepTiledOutputFile9levelModeEv
libOpenEXR-3_0.so.29:_ZNK7Imf_3_019DeepTiledOutputFile9numLevelsEv
libOpenEXR-3_0.so.29:_ZNK7Imf_3_019DeepTiledOutputFile9numXTilesEi
libOpenEXR-3_0.so.29:_ZNK7Imf_3_019DeepTiledOutputFile9numYTilesEi
libOpenEXR-3_0.so.29:_ZNK7Imf_3_019DeepTiledOutputFile9tileXSizeEv
libOpenEXR-3_0.so.29:_ZNK7Imf_3_019DeepTiledOutputFile9tileYSizeEv
libOpenEXR-3_0.so.29:_ZNK7Imf_3_019DeepTiledOutputPart10levelWidthEi
libOpenEXR-3_0.so.29:_ZNK7Imf_3_019DeepTiledOutputPart10numXLevelsEv
libOpenEXR-3_0.so.29:_ZNK7Imf_3_019DeepTiledOutputPart10numYLevelsEv
libOpenEXR-3_0.so.29:_ZNK7Imf_3_019DeepTiledOutputPart11frameBufferEv
libOpenEXR-3_0.so.29:_ZNK7Imf_3_019DeepTiledOutputPart11levelHeightEi
libOpenEXR-3_0.so.29:_ZNK7Imf_3_019DeepTiledOutputPart12isValidLevelEii
libOpenEXR-3_0.so.29:_ZNK7Imf_3_019DeepTiledOutputPart17dataWindowForTileEiii
libOpenEXR-3_0.so.29:_ZNK7Imf_3_019DeepTiledOutputPart17dataWindowForTileEiiii
libOpenEXR-3_0.so.29:_ZNK7Imf_3_019DeepTiledOutputPart17levelRoundingModeEv
libOpenEXR-3_0.so.29:_ZNK7Imf_3_019DeepTiledOutputPart18dataWindowForLevelEi
libOpenEXR-3_0.so.29:_ZNK7Imf_3_019DeepTiledOutputPart18dataWindowForLevelEii
libOpenEXR-3_0.so.29:_ZNK7Imf_3_019DeepTiledOutputPart6headerEv
libOpenEXR-3_0.so.29:_ZNK7Imf_3_019DeepTiledOutputPart8fileNameEv
libOpenEXR-3_0.so.29:_ZNK7Imf_3_019DeepTiledOutputPart9levelModeEv
libOpenEXR-3_0.so.29:_ZNK7Imf_3_019DeepTiledOutputPart9numLevelsEv
libOpenEXR-3_0.so.29:_ZNK7Imf_3_019DeepTiledOutputPart9numXTilesEi
libOpenEXR-3_0.so.29:_ZNK7Imf_3_019DeepTiledOutputPart9numYTilesEi
libOpenEXR-3_0.so.29:_ZNK7Imf_3_019DeepTiledOutputPart9tileXSizeEv
libOpenEXR-3_0.so.29:_ZNK7Imf_3_019DeepTiledOutputPart9tileYSizeEv
libOpenEXR-3_0.so.29:_ZNK7Imf_3_019MultiPartOutputFile5partsEv
libOpenEXR-3_0.so.29:_ZNK7Imf_3_019MultiPartOutputFile6headerEi
libOpenEXR-3_0.so.29:_ZNK7Imf_3_019TiledRgbaOutputFile10dataWindowEv
libOpenEXR-3_0.so.29:_ZNK7Imf_3_019TiledRgbaOutputFile10levelWidthEi
libOpenEXR-3_0.so.29:_ZNK7Imf_3_019TiledRgbaOutputFile10numXLevelsEv
libOpenEXR-3_0.so.29:_ZNK7Imf_3_019TiledRgbaOutputFile10numYLevelsEv
libOpenEXR-3_0.so.29:_ZNK7Imf_3_019TiledRgbaOutputFile11compressionEv
libOpenEXR-3_0.so.29:_ZNK7Imf_3_019TiledRgbaOutputFile11frameBufferEv
libOpenEXR-3_0.so.29:_ZNK7Imf_3_019TiledRgbaOutputFile11levelHeightEi
libOpenEXR-3_0.so.29:_ZNK7Imf_3_019TiledRgbaOutputFile12isValidLevelEii
libOpenEXR-3_0.so.29:_ZNK7Imf_3_019TiledRgbaOutputFile13displayWindowEv
libOpenEXR-3_0.so.29:_ZNK7Imf_3_019TiledRgbaOutputFile16pixelAspectRatioEv
libOpenEXR-3_0.so.29:_ZNK7Imf_3_019TiledRgbaOutputFile17dataWindowForTileEiii
libOpenEXR-3_0.so.29:_ZNK7Imf_3_019TiledRgbaOutputFile17dataWindowForTileEiiii
libOpenEXR-3_0.so.29:_ZNK7Imf_3_019TiledRgbaOutputFile17levelRoundingModeEv
libOpenEXR-3_0.so.29:_ZNK7Imf_3_019TiledRgbaOutputFile17screenWindowWidthEv
libOpenEXR-3_0.so.29:_ZNK7Imf_3_019TiledRgbaOutputFile18dataWindowForLevelEi
libOpenEXR-3_0.so.29:_ZNK7Imf_3_019TiledRgbaOutputFile18dataWindowForLevelEii
libOpenEXR-3_0.so.29:_ZNK7Imf_3_019TiledRgbaOutputFile18screenWindowCenterEv
libOpenEXR-3_0.so.29:_ZNK7Imf_3_019TiledRgbaOutputFile6headerEv
libOpenEXR-3_0.so.29:_ZNK7Imf_3_019TiledRgbaOutputFile8channelsEv
libOpenEXR-3_0.so.29:_ZNK7Imf_3_019TiledRgbaOutputFile9levelModeEv
libOpenEXR-3_0.so.29:_ZNK7Imf_3_019TiledRgbaOutputFile9lineOrderEv
libOpenEXR-3_0.so.29:_ZNK7Imf_3_019TiledRgbaOutputFile9numLevelsEv
libOpenEXR-3_0.so.29:_ZNK7Imf_3_019TiledRgbaOutputFile9numXTilesEi
libOpenEXR-3_0.so.29:_ZNK7Imf_3_019TiledRgbaOutputFile9numYTilesEi
libOpenEXR-3_0.so.29:_ZNK7Imf_3_019TiledRgbaOutputFile9tileXSizeEv
libOpenEXR-3_0.so.29:_ZNK7Imf_3_019TiledRgbaOutputFile9tileYSizeEv
libOpenEXR-3_0.so.29:_ZNK7Imf_3_021CompositeDeepScanLine10dataWindowEv
libOpenEXR-3_0.so.29:_ZNK7Imf_3_021CompositeDeepScanLine11frameBufferEv
libOpenEXR-3_0.so.29:_ZNK7Imf_3_021CompositeDeepScanLine7sourcesEv
libOpenEXR-3_0.so.29:_ZNK7Imf_3_021DeepScanLineInputFile10isCompleteEv
libOpenEXR-3_0.so.29:_ZNK7Imf_3_021DeepScanLineInputFile10readPixelsEPKcRKNS_15DeepFrameBufferEii
libOpenEXR-3_0.so.29:_ZNK7Imf_3_021DeepScanLineInputFile11frameBufferEv
libOpenEXR-3_0.so.29:_ZNK7Imf_3_021DeepScanLineInputFile19lastScanLineInChunkEi
libOpenEXR-3_0.so.29:_ZNK7Imf_3_021DeepScanLineInputFile20firstScanLineInChunkEi
libOpenEXR-3_0.so.29:_ZNK7Imf_3_021DeepScanLineInputFile21readPixelSampleCountsEPKcRKNS_15DeepFrameBufferEii
libOpenEXR-3_0.so.29:_ZNK7Imf_3_021DeepScanLineInputFile6headerEv
libOpenEXR-3_0.so.29:_ZNK7Imf_3_021DeepScanLineInputFile7versionEv
libOpenEXR-3_0.so.29:_ZNK7Imf_3_021DeepScanLineInputFile8fileNameEv
libOpenEXR-3_0.so.29:_ZNK7Imf_3_021DeepScanLineInputPart10isCompleteEv
libOpenEXR-3_0.so.29:_ZNK7Imf_3_021DeepScanLineInputPart10readPixelsEPKcRKNS_15DeepFrameBufferEii
libOpenEXR-3_0.so.29:_ZNK7Imf_3_021DeepScanLineInputPart11frameBufferEv
libOpenEXR-3_0.so.29:_ZNK7Imf_3_021DeepScanLineInputPart19lastScanLineInChunkEi
libOpenEXR-3_0.so.29:_ZNK7Imf_3_021DeepScanLineInputPart20firstScanLineInChunkEi
libOpenEXR-3_0.so.29:_ZNK7Imf_3_021DeepScanLineInputPart21readPixelSampleCountsEPKcRKNS_15DeepFrameBufferEii
libOpenEXR-3_0.so.29:_ZNK7Imf_3_021DeepScanLineInputPart6headerEv
libOpenEXR-3_0.so.29:_ZNK7Imf_3_021DeepScanLineInputPart7versionEv
libOpenEXR-3_0.so.29:_ZNK7Imf_3_021DeepScanLineInputPart8fileNameEv
libOpenEXR-3_0.so.29:_ZNK7Imf_3_022DeepScanLineOutputFile11frameBufferEv
libOpenEXR-3_0.so.29:_ZNK7Imf_3_022DeepScanLineOutputFile15currentScanLineEv
libOpenEXR-3_0.so.29:_ZNK7Imf_3_022DeepScanLineOutputFile6headerEv
libOpenEXR-3_0.so.29:_ZNK7Imf_3_022DeepScanLineOutputFile8fileNameEv
libOpenEXR-3_0.so.29:_ZNK7Imf_3_022DeepScanLineOutputPart11frameBufferEv
libOpenEXR-3_0.so.29:_ZNK7Imf_3_022DeepScanLineOutputPart15currentScanLineEv
libOpenEXR-3_0.so.29:_ZNK7Imf_3_022DeepScanLineOutputPart6headerEv
libOpenEXR-3_0.so.29:_ZNK7Imf_3_022DeepScanLineOutputPart8fileNameEv
libOpenEXR-3_0.so.29:_ZNK7Imf_3_06Header10chunkCountEv
libOpenEXR-3_0.so.29:_ZNK7Imf_3_06Header10dataWindowEv
libOpenEXR-3_0.so.29:_ZNK7Imf_3_06Header10hasVersionEv
libOpenEXR-3_0.so.29:_ZNK7Imf_3_06Header11compressionEv
libOpenEXR-3_0.so.29:_ZNK7Imf_3_06Header11sanityCheckEbb
libOpenEXR-3_0.so.29:_ZNK7Imf_3_06Header12previewImageEv
libOpenEXR-3_0.so.29:_ZNK7Imf_3_06Header13displayWindowEv
libOpenEXR-3_0.so.29:_ZNK7Imf_3_06Header13hasChunkCountEv
libOpenEXR-3_0.so.29:_ZNK7Imf_3_06Header15hasPreviewImageEv
libOpenEXR-3_0.so.29:_ZNK7Imf_3_06Header15tileDescriptionEv
libOpenEXR-3_0.so.29:_ZNK7Imf_3_06Header16pixelAspectRatioEv
libOpenEXR-3_0.so.29:_ZNK7Imf_3_06Header17screenWindowWidthEv
libOpenEXR-3_0.so.29:_ZNK7Imf_3_06Header18hasTileDescriptionEv
libOpenEXR-3_0.so.29:_ZNK7Imf_3_06Header18screenWindowCenterEv
libOpenEXR-3_0.so.29:_ZNK7Imf_3_06Header3endEv
libOpenEXR-3_0.so.29:_ZNK7Imf_3_06Header4findEPKc
libOpenEXR-3_0.so.29:_ZNK7Imf_3_06Header4findERKNSt7__cxx1112basic_stringIcSt11char_traitsIcESaIcEEE
libOpenEXR-3_0.so.29:_ZNK7Imf_3_06Header4nameB5cxx11Ev
libOpenEXR-3_0.so.29:_ZNK7Imf_3_06Header4typeB5cxx11Ev
libOpenEXR-3_0.so.29:_ZNK7Imf_3_06Header4viewB5cxx11Ev
libOpenEXR-3_0.so.29:_ZNK7Imf_3_06Header5beginEv
libOpenEXR-3_0.so.29:_ZNK7Imf_3_06Header7hasNameEv
libOpenEXR-3_0.so.29:_ZNK7Imf_3_06Header7hasTypeEv
libOpenEXR-3_0.so.29:_ZNK7Imf_3_06Header7hasViewEv
libOpenEXR-3_0.so.29:_ZNK7Imf_3_06Header7versionEv
libOpenEXR-3_0.so.29:_ZNK7Imf_3_06Header7writeToERNS_7OStreamEb
libOpenEXR-3_0.so.29:_ZNK7Imf_3_06Header8channelsEv
libOpenEXR-3_0.so.29:_ZNK7Imf_3_06Header9lineOrderEv
libOpenEXR-3_0.so.29:_ZNK7Imf_3_06HeaderixEPKc
libOpenEXR-3_0.so.29:_ZNK7Imf_3_06HeaderixERKNSt7__cxx1112basic_stringIcSt11char_traitsIcESaIcEEE
libOpenEXR-3_0.so.29:_ZNK7Imf_3_07ChanneleqERKS0_
libOpenEXR-3_0.so.29:_ZNK7Imf_3_07HalfLut5applyEPN9Imath_3_04halfEii
libOpenEXR-3_0.so.29:_ZNK7Imf_3_07HalfLut5applyERKNS_5SliceERKN9Imath_3_03BoxINS4_4Vec2IiEEEE
libOpenEXR-3_0.so.29:_ZNK7Imf_3_07IStream14isMemoryMappedEv
libOpenEXR-3_0.so.29:_ZNK7Imf_3_07IStream8fileNameEv
libOpenEXR-3_0.so.29:_ZNK7Imf_3_07KeyCode10perfOffsetEv
libOpenEXR-3_0.so.29:_ZNK7Imf_3_07KeyCode11filmMfcCodeEv
libOpenEXR-3_0.so.29:_ZNK7Imf_3_07KeyCode13perfsPerCountEv
libOpenEXR-3_0.so.29:_ZNK7Imf_3_07KeyCode13perfsPerFrameEv
libOpenEXR-3_0.so.29:_ZNK7Imf_3_07KeyCode5countEv
libOpenEXR-3_0.so.29:_ZNK7Imf_3_07KeyCode6prefixEv
libOpenEXR-3_0.so.29:_ZNK7Imf_3_07KeyCode8filmTypeEv
libOpenEXR-3_0.so.29:_ZNK7Imf_3_07OStream8fileNameEv
libOpenEXR-3_0.so.29:_ZNK7Imf_3_07RgbaLut5applyEPNS_4RgbaEii
libOpenEXR-3_0.so.29:_ZNK7Imf_3_07RgbaLut5applyEPNS_4RgbaEiiRKN9Imath_3_03BoxINS3_4Vec2IiEEEE
libOpenEXR-3_0.so.29:_ZNK7Imf_3_08TimeCode10colorFrameEv
libOpenEXR-3_0.so.29:_ZNK7Imf_3_08TimeCode10fieldPhaseEv
libOpenEXR-3_0.so.29:_ZNK7Imf_3_08TimeCode11binaryGroupEi
libOpenEXR-3_0.so.29:_ZNK7Imf_3_08TimeCode12timeAndFlagsENS0_7PackingE
libOpenEXR-3_0.so.29:_ZNK7Imf_3_08TimeCode4bgf0Ev
libOpenEXR-3_0.so.29:_ZNK7Imf_3_08TimeCode4bgf1Ev
libOpenEXR-3_0.so.29:_ZNK7Imf_3_08TimeCode4bgf2Ev
libOpenEXR-3_0.so.29:_ZNK7Imf_3_08TimeCode5frameEv
libOpenEXR-3_0.so.29:_ZNK7Imf_3_08TimeCode5hoursEv
libOpenEXR-3_0.so.29:_ZNK7Imf_3_08TimeCode7minutesEv
libOpenEXR-3_0.so.29:_ZNK7Imf_3_08TimeCode7secondsEv
libOpenEXR-3_0.so.29:_ZNK7Imf_3_08TimeCode8userDataEv
libOpenEXR-3_0.so.29:_ZNK7Imf_3_08TimeCode9dropFrameEv
libOpenEXR-3_0.so.29:_ZNK7Imf_3_08TimeCodeeqERKS0_
libOpenEXR-3_0.so.29:_ZNK7Imf_3_08TimeCodeneERKS0_
libOpenEXR-3_0.so.29:_ZNK7Imf_3_09InputFile10isCompleteEv
libOpenEXR-3_0.so.29:_ZNK7Imf_3_09InputFile11frameBufferEv
libOpenEXR-3_0.so.29:_ZNK7Imf_3_09InputFile20rawPixelDataToBufferEiPcRi
libOpenEXR-3_0.so.29:_ZNK7Imf_3_09InputFile21isOptimizationEnabledEv
libOpenEXR-3_0.so.29:_ZNK7Imf_3_09InputFile6headerEv
libOpenEXR-3_0.so.29:_ZNK7Imf_3_09InputFile7versionEv
libOpenEXR-3_0.so.29:_ZNK7Imf_3_09InputFile8fileNameEv
libOpenEXR-3_0.so.29:_ZNK7Imf_3_09InputPart10isCompleteEv
libOpenEXR-3_0.so.29:_ZNK7Imf_3_09InputPart11frameBufferEv
libOpenEXR-3_0.so.29:_ZNK7Imf_3_09InputPart20rawPixelDataToBufferEiPcRi
libOpenEXR-3_0.so.29:_ZNK7Imf_3_09InputPart21isOptimizationEnabledEv
libOpenEXR-3_0.so.29:_ZNK7Imf_3_09InputPart6headerEv
libOpenEXR-3_0.so.29:_ZNK7Imf_3_09InputPart7versionEv
libOpenEXR-3_0.so.29:_ZNK7Imf_3_09InputPart8fileNameEv
libOpenEXRUtil-3_0.so.29:_ZN7Imf_3_010ImageLevel11shiftPixelsEii
libOpenEXRUtil-3_0.so.29:_ZN7Imf_3_010ImageLevel6resizeERKN9Imath_3_03BoxINS1_4Vec2IiEEEE
libOpenEXRUtil-3_0.so.29:_ZN7Imf_3_010ImageLevelC1ERNS_5ImageEii
libOpenEXRUtil-3_0.so.29:_ZN7Imf_3_010ImageLevelC2ERNS_5ImageEii
libOpenEXRUtil-3_0.so.29:_ZN7Imf_3_010ImageLevelD0Ev
libOpenEXRUtil-3_0.so.29:_ZN7Imf_3_010ImageLevelD1Ev
libOpenEXRUtil-3_0.so.29:_ZN7Imf_3_010ImageLevelD2Ev
libOpenEXRUtil-3_0.so.29:_ZN7Imf_3_012ImageChannel6resizeEv
libOpenEXRUtil-3_0.so.29:_ZN7Imf_3_012ImageChannelC1ERNS_10ImageLevelEiib
libOpenEXRUtil-3_0.so.29:_ZN7Imf_3_012ImageChannelC2ERNS_10ImageLevelEiib
libOpenEXRUtil-3_0.so.29:_ZN7Imf_3_012ImageChannelD0Ev
libOpenEXRUtil-3_0.so.29:_ZN7Imf_3_012ImageChannelD1Ev
libOpenEXRUtil-3_0.so.29:_ZN7Imf_3_012ImageChannelD2Ev
libOpenEXRUtil-3_0.so.29:_ZN7Imf_3_013loadDeepImageERKNSt7__cxx1112basic_stringIcSt11char_traitsIcESaIcEEERNS_6HeaderERNS_9DeepImageE
libOpenEXRUtil-3_0.so.29:_ZN7Imf_3_013loadDeepImageERKNSt7__cxx1112basic_stringIcSt11char_traitsIcESaIcEEERNS_9DeepImageE
libOpenEXRUtil-3_0.so.29:_ZN7Imf_3_013loadFlatImageERKNSt7__cxx1112basic_stringIcSt11char_traitsIcESaIcEEERNS_6HeaderERNS_9FlatImageE
libOpenEXRUtil-3_0.so.29:_ZN7Imf_3_013loadFlatImageERKNSt7__cxx1112basic_stringIcSt11char_traitsIcESaIcEEERNS_9FlatImageE
libOpenEXRUtil-3_0.so.29:_ZN7Imf_3_013saveDeepImageERKNSt7__cxx1112basic_stringIcSt11char_traitsIcESaIcEEERKNS_6HeaderERKNS_9DeepImageENS_16DataWindowSourceE
libOpenEXRUtil-3_0.so.29:_ZN7Imf_3_013saveDeepImageERKNSt7__cxx1112basic_stringIcSt11char_traitsIcESaIcEEERKNS_9DeepImageE
libOpenEXRUtil-3_0.so.29:_ZN7Imf_3_013saveFlatImageERKNSt7__cxx1112basic_stringIcSt11char_traitsIcESaIcEEERKNS_6HeaderERKNS_9FlatImageENS_16DataWindowSourceE
libOpenEXRUtil-3_0.so.29:_ZN7Imf_3_013saveFlatImageERKNSt7__cxx1112basic_stringIcSt11char_traitsIcESaIcEEERKNS_9FlatImageE
libOpenEXRUtil-3_0.so.29:_ZN7Imf_3_014DeepImageLevel11findChannelERKNSt7__cxx1112basic_stringIcSt11char_traitsIcESaIcEEE
libOpenEXRUtil-3_0.so.29:_ZN7Imf_3_014DeepImageLevel3endEv
libOpenEXRUtil-3_0.so.29:_ZN7Imf_3_014DeepImageLevel5beginEv
libOpenEXRUtil-3_0.so.29:_ZN7Imf_3_014DeepImageLevel7channelERKNSt7__cxx1112basic_stringIcSt11char_traitsIcESaIcEEE
libOpenEXRUtil-3_0.so.29:_ZN7Imf_3_014DeepImageLevel9deepImageEv
libOpenEXRUtil-3_0.so.29:_ZN7Imf_3_014FlatImageLevel11findChannelERKNSt7__cxx1112basic_stringIcSt11char_traitsIcESaIcEEE
libOpenEXRUtil-3_0.so.29:_ZN7Imf_3_014FlatImageLevel3endEv
libOpenEXRUtil-3_0.so.29:_ZN7Imf_3_014FlatImageLevel5beginEv
libOpenEXRUtil-3_0.so.29:_ZN7Imf_3_014FlatImageLevel7channelERKNSt7__cxx1112basic_stringIcSt11char_traitsIcESaIcEEE
libOpenEXRUtil-3_0.so.29:_ZN7Imf_3_014FlatImageLevel9flatImageEv
libOpenEXRUtil-3_0.so.29:_ZN7Imf_3_016DeepImageChannel12sampleCountsEv
libOpenEXRUtil-3_0.so.29:_ZN7Imf_3_016DeepImageChannel6resizeEv
libOpenEXRUtil-3_0.so.29:_ZN7Imf_3_016DeepImageChannel9deepLevelEv
libOpenEXRUtil-3_0.so.29:_ZN7Imf_3_016DeepImageChannelC1ERNS_14DeepImageLevelEb
libOpenEXRUtil-3_0.so.29:_ZN7Imf_3_016DeepImageChannelC2ERNS_14DeepImageLevelEb
libOpenEXRUtil-3_0.so.29:_ZN7Imf_3_016DeepImageChannelD0Ev
libOpenEXRUtil-3_0.so.29:_ZN7Imf_3_016DeepImageChannelD1Ev
libOpenEXRUtil-3_0.so.29:_ZN7Imf_3_016DeepImageChannelD2Ev
libOpenEXRUtil-3_0.so.29:_ZN7Imf_3_016FlatImageChannel6resizeEv
libOpenEXRUtil-3_0.so.29:_ZN7Imf_3_016FlatImageChannel9flatLevelEv
libOpenEXRUtil-3_0.so.29:_ZN7Imf_3_016FlatImageChannelC1ERNS_14FlatImageLevelEiib
libOpenEXRUtil-3_0.so.29:_ZN7Imf_3_016FlatImageChannelC2ERNS_14FlatImageLevelEiib
libOpenEXRUtil-3_0.so.29:_ZN7Imf_3_016FlatImageChannelD0Ev
libOpenEXRUtil-3_0.so.29:_ZN7Imf_3_016FlatImageChannelD1Ev
libOpenEXRUtil-3_0.so.29:_ZN7Imf_3_016FlatImageChannelD2Ev
libOpenEXRUtil-3_0.so.29:_ZN7Imf_3_016checkOpenEXRFileEPKcbb
libOpenEXRUtil-3_0.so.29:_ZN7Imf_3_016checkOpenEXRFileEPKcmbb
libOpenEXRUtil-3_0.so.29:_ZN7Imf_3_017dataWindowForFileERKNS_6HeaderERKNS_5ImageENS_16DataWindowSourceE
libOpenEXRUtil-3_0.so.29:_ZN7Imf_3_018SampleCountChannel16resetBasePointerEv
libOpenEXRUtil-3_0.so.29:_ZN7Imf_3_018SampleCountChannel3setEiPj
libOpenEXRUtil-3_0.so.29:_ZN7Imf_3_018SampleCountChannel3setEiij
libOpenEXRUtil-3_0.so.29:_ZN7Imf_3_018SampleCountChannel5clearEv
libOpenEXRUtil-3_0.so.29:_ZN7Imf_3_018SampleCountChannel6resizeEv
libOpenEXRUtil-3_0.so.29:_ZN7Imf_3_018SampleCountChannel7endEditEv
libOpenEXRUtil-3_0.so.29:_ZN7Imf_3_018SampleCountChannel9beginEditEv
libOpenEXRUtil-3_0.so.29:_ZN7Imf_3_018SampleCountChannel9deepLevelEv
libOpenEXRUtil-3_0.so.29:_ZN7Imf_3_018SampleCountChannelC1ERNS_14DeepImageLevelE
libOpenEXRUtil-3_0.so.29:_ZN7Imf_3_018SampleCountChannelC2ERNS_14DeepImageLevelE
libOpenEXRUtil-3_0.so.29:_ZN7Imf_3_018SampleCountChannelD0Ev
libOpenEXRUtil-3_0.so.29:_ZN7Imf_3_018SampleCountChannelD1Ev
libOpenEXRUtil-3_0.so.29:_ZN7Imf_3_018SampleCountChannelD2Ev
libOpenEXRUtil-3_0.so.29:_ZN7Imf_3_018loadDeepTiledImageERKNSt7__cxx1112basic_stringIcSt11char_traitsIcESaIcEEERNS_6HeaderERNS_9DeepImageE
libOpenEXRUtil-3_0.so.29:_ZN7Imf_3_018loadDeepTiledImageERKNSt7__cxx1112basic_stringIcSt11char_traitsIcESaIcEEERNS_9DeepImageE
libOpenEXRUtil-3_0.so.29:_ZN7Imf_3_018loadFlatTiledImageERKNSt7__cxx1112basic_stringIcSt11char_traitsIcESaIcEEERNS_6HeaderERNS_9FlatImageE
libOpenEXRUtil-3_0.so.29:_ZN7Imf_3_018loadFlatTiledImageERKNSt7__cxx1112basic_stringIcSt11char_traitsIcESaIcEEERNS_9FlatImageE
libOpenEXRUtil-3_0.so.29:_ZN7Imf_3_018saveDeepTiledImageERKNSt7__cxx1112basic_stringIcSt11char_traitsIcESaIcEEERKNS_6HeaderERKNS_9DeepImageENS_16DataWindowSourceE
libOpenEXRUtil-3_0.so.29:_ZN7Imf_3_018saveDeepTiledImageERKNSt7__cxx1112basic_stringIcSt11char_traitsIcESaIcEEERKNS_9DeepImageE
libOpenEXRUtil-3_0.so.29:_ZN7Imf_3_018saveFlatTiledImageERKNSt7__cxx1112basic_stringIcSt11char_traitsIcESaIcEEERKNS_6HeaderERKNS_9FlatImageENS_16DataWindowSourceE
libOpenEXRUtil-3_0.so.29:_ZN7Imf_3_018saveFlatTiledImageERKNSt7__cxx1112basic_stringIcSt11char_traitsIcESaIcEEERKNS_9FlatImageE
libOpenEXRUtil-3_0.so.29:_ZN7Imf_3_021loadDeepScanLineImageERKNSt7__cxx1112basic_stringIcSt11char_traitsIcESaIcEEERNS_6HeaderERNS_9DeepImageE
libOpenEXRUtil-3_0.so.29:_ZN7Imf_3_021loadDeepScanLineImageERKNSt7__cxx1112basic_stringIcSt11char_traitsIcESaIcEEERNS_9DeepImageE
libOpenEXRUtil-3_0.so.29:_ZN7Imf_3_021loadFlatScanLineImageERKNSt7__cxx1112basic_stringIcSt11char_traitsIcESaIcEEERNS_6HeaderERNS_9FlatImageE
libOpenEXRUtil-3_0.so.29:_ZN7Imf_3_021loadFlatScanLineImageERKNSt7__cxx1112basic_stringIcSt11char_traitsIcESaIcEEERNS_9FlatImageE
libOpenEXRUtil-3_0.so.29:_ZN7Imf_3_021saveDeepScanLineImageERKNSt7__cxx1112basic_stringIcSt11char_traitsIcESaIcEEERKNS_6HeaderERKNS_9DeepImageENS_16DataWindowSourceE
libOpenEXRUtil-3_0.so.29:_ZN7Imf_3_021saveDeepScanLineImageERKNSt7__cxx1112basic_stringIcSt11char_traitsIcESaIcEEERKNS_9DeepImageE
libOpenEXRUtil-3_0.so.29:_ZN7Imf_3_021saveFlatScanLineImageERKNSt7__cxx1112basic_stringIcSt11char_traitsIcESaIcEEERKNS_6HeaderERKNS_9FlatImageENS_16DataWindowSourceE
libOpenEXRUtil-3_0.so.29:_ZN7Imf_3_021saveFlatScanLineImageERKNSt7__cxx1112basic_stringIcSt11char_traitsIcESaIcEEERKNS_9FlatImageE
libOpenEXRUtil-3_0.so.29:_ZN7Imf_3_05Image11shiftPixelsEii
libOpenEXRUtil-3_0.so.29:_ZN7Imf_3_05Image12eraseChannelERKNSt7__cxx1112basic_stringIcSt11char_traitsIcESaIcEEE
libOpenEXRUtil-3_0.so.29:_ZN7Imf_3_05Image13clearChannelsEv
libOpenEXRUtil-3_0.so.29:_ZN7Imf_3_05Image13insertChannelERKNSt7__cxx1112basic_stringIcSt11char_traitsIcESaIcEEENS_9PixelTypeEiib
libOpenEXRUtil-3_0.so.29:_ZN7Imf_3_05Image13insertChannelERKNSt7__cxx1112basic_stringIcSt11char_traitsIcESaIcEEERKNS_7ChannelE
libOpenEXRUtil-3_0.so.29:_ZN7Imf_3_05Image13renameChannelERKNSt7__cxx1112basic_stringIcSt11char_traitsIcESaIcEEES8_
libOpenEXRUtil-3_0.so.29:_ZN7Imf_3_05Image14renameChannelsERKSt3mapINSt7__cxx1112basic_stringIcSt11char_traitsIcESaIcEEES7_St4lessIS7_ESaISt4pairIKS7_S7_EEE
libOpenEXRUtil-3_0.so.29:_ZN7Imf_3_05Image5levelEi
libOpenEXRUtil-3_0.so.29:_ZN7Imf_3_05Image5levelEii
libOpenEXRUtil-3_0.so.29:_ZN7Imf_3_05Image6resizeERKN9Imath_3_03BoxINS1_4Vec2IiEEEE
libOpenEXRUtil-3_0.so.29:_ZN7Imf_3_05Image6resizeERKN9Imath_3_03BoxINS1_4Vec2IiEEEENS_9LevelModeENS_17LevelRoundingModeE
libOpenEXRUtil-3_0.so.29:_ZN7Imf_3_05ImageC1Ev
libOpenEXRUtil-3_0.so.29:_ZN7Imf_3_05ImageC2Ev
libOpenEXRUtil-3_0.so.29:_ZN7Imf_3_05ImageD0Ev
libOpenEXRUtil-3_0.so.29:_ZN7Imf_3_05ImageD1Ev
libOpenEXRUtil-3_0.so.29:_ZN7Imf_3_05ImageD2Ev
libOpenEXRUtil-3_0.so.29:_ZN7Imf_3_09DeepImage5levelEi
libOpenEXRUtil-3_0.so.29:_ZN7Imf_3_09DeepImage5levelEii
libOpenEXRUtil-3_0.so.29:_ZN7Imf_3_09DeepImage8newLevelEiiRKN9Imath_3_03BoxINS1_4Vec2IiEEEE
libOpenEXRUtil-3_0.so.29:_ZN7Imf_3_09DeepImageC1ERKN9Imath_3_03BoxINS1_4Vec2IiEEEENS_9LevelModeENS_17LevelRoundingModeE
libOpenEXRUtil-3_0.so.29:_ZN7Imf_3_09DeepImageC1Ev
libOpenEXRUtil-3_0.so.29:_ZN7Imf_3_09DeepImageC2ERKN9Imath_3_03BoxINS1_4Vec2IiEEEENS_9LevelModeENS_17LevelRoundingModeE
libOpenEXRUtil-3_0.so.29:_ZN7Imf_3_09DeepImageC2Ev
libOpenEXRUtil-3_0.so.29:_ZN7Imf_3_09DeepImageD0Ev
libOpenEXRUtil-3_0.so.29:_ZN7Imf_3_09DeepImageD1Ev
libOpenEXRUtil-3_0.so.29:_ZN7Imf_3_09DeepImageD2Ev
libOpenEXRUtil-3_0.so.29:_ZN7Imf_3_09FlatImage5levelEi
libOpenEXRUtil-3_0.so.29:_ZN7Imf_3_09FlatImage5levelEii
libOpenEXRUtil-3_0.so.29:_ZN7Imf_3_09FlatImage8newLevelEiiRKN9Imath_3_03BoxINS1_4Vec2IiEEEE
libOpenEXRUtil-3_0.so.29:_ZN7Imf_3_09FlatImageC1ERKN9Imath_3_03BoxINS1_4Vec2IiEEEENS_9LevelModeENS_17LevelRoundingModeE
libOpenEXRUtil-3_0.so.29:_ZN7Imf_3_09FlatImageC1Ev
libOpenEXRUtil-3_0.so.29:_ZN7Imf_3_09FlatImageC2ERKN9Imath_3_03BoxINS1_4Vec2IiEEEENS_9LevelModeENS_17LevelRoundingModeE
libOpenEXRUtil-3_0.so.29:_ZN7Imf_3_09FlatImageC2Ev
libOpenEXRUtil-3_0.so.29:_ZN7Imf_3_09FlatImageD0Ev
libOpenEXRUtil-3_0.so.29:_ZN7Imf_3_09FlatImageD1Ev
libOpenEXRUtil-3_0.so.29:_ZN7Imf_3_09FlatImageD2Ev
libOpenEXRUtil-3_0.so.29:_ZN7Imf_3_09loadImageERKNSt7__cxx1112basic_stringIcSt11char_traitsIcESaIcEEE
libOpenEXRUtil-3_0.so.29:_ZN7Imf_3_09loadImageERKNSt7__cxx1112basic_stringIcSt11char_traitsIcESaIcEEERNS_6HeaderE
libOpenEXRUtil-3_0.so.29:_ZN7Imf_3_09saveImageERKNSt7__cxx1112basic_stringIcSt11char_traitsIcESaIcEEERKNS_5ImageE
libOpenEXRUtil-3_0.so.29:_ZN7Imf_3_09saveImageERKNSt7__cxx1112basic_stringIcSt11char_traitsIcESaIcEEERKNS_6HeaderERKNS_5ImageENS_16DataWindowSourceE
libOpenEXRUtil-3_0.so.29:_ZNK7Imf_3_010ImageLevel18throwChannelExistsERKNSt7__cxx1112basic_stringIcSt11char_traitsIcESaIcEEE
libOpenEXRUtil-3_0.so.29:_ZNK7Imf_3_010ImageLevel19throwBadChannelNameERKNSt7__cxx1112basic_stringIcSt11char_traitsIcESaIcEEE
libOpenEXRUtil-3_0.so.29:_ZNK7Imf_3_010ImageLevel25throwBadChannelNameOrTypeERKNSt7__cxx1112basic_stringIcSt11char_traitsIcESaIcEEE
libOpenEXRUtil-3_0.so.29:_ZNK7Imf_3_012ImageChannel11boundsCheckEii
libOpenEXRUtil-3_0.so.29:_ZNK7Imf_3_012ImageChannel7channelEv
libOpenEXRUtil-3_0.so.29:_ZNK7Imf_3_014DeepImageLevel11findChannelERKNSt7__cxx1112basic_stringIcSt11char_traitsIcESaIcEEE
libOpenEXRUtil-3_0.so.29:_ZNK7Imf_3_014DeepImageLevel3endEv
libOpenEXRUtil-3_0.so.29:_ZNK7Imf_3_014DeepImageLevel5beginEv
libOpenEXRUtil-3_0.so.29:_ZNK7Imf_3_014DeepImageLevel7channelERKNSt7__cxx1112basic_stringIcSt11char_traitsIcESaIcEEE
libOpenEXRUtil-3_0.so.29:_ZNK7Imf_3_014DeepImageLevel9deepImageEv
libOpenEXRUtil-3_0.so.29:_ZNK7Imf_3_014FlatImageLevel11findChannelERKNSt7__cxx1112basic_stringIcSt11char_traitsIcESaIcEEE
libOpenEXRUtil-3_0.so.29:_ZNK7Imf_3_014FlatImageLevel3endEv
libOpenEXRUtil-3_0.so.29:_ZNK7Imf_3_014FlatImageLevel5beginEv
libOpenEXRUtil-3_0.so.29:_ZNK7Imf_3_014FlatImageLevel7channelERKNSt7__cxx1112basic_stringIcSt11char_traitsIcESaIcEEE
libOpenEXRUtil-3_0.so.29:_ZNK7Imf_3_014FlatImageLevel9flatImageEv
libOpenEXRUtil-3_0.so.29:_ZNK7Imf_3_016DeepImageChannel12sampleCountsEv
libOpenEXRUtil-3_0.so.29:_ZNK7Imf_3_016DeepImageChannel9deepLevelEv
libOpenEXRUtil-3_0.so.29:_ZNK7Imf_3_016FlatImageChannel9flatLevelEv
libOpenEXRUtil-3_0.so.29:_ZNK7Imf_3_018SampleCountChannel5sliceEv
libOpenEXRUtil-3_0.so.29:_ZNK7Imf_3_018SampleCountChannel9deepLevelEv
libOpenEXRUtil-3_0.so.29:_ZNK7Imf_3_018SampleCountChannel9pixelTypeEv
libOpenEXRUtil-3_0.so.29:_ZNK7Imf_3_021TypedDeepImageChannelIN9Imath_3_04halfEE9pixelTypeEv
libOpenEXRUtil-3_0.so.29:_ZNK7Imf_3_021TypedDeepImageChannelIfE9pixelTypeEv
libOpenEXRUtil-3_0.so.29:_ZNK7Imf_3_021TypedDeepImageChannelIjE9pixelTypeEv
libOpenEXRUtil-3_0.so.29:_ZNK7Imf_3_05Image10dataWindowEv
libOpenEXRUtil-3_0.so.29:_ZNK7Imf_3_05Image10levelWidthEi
libOpenEXRUtil-3_0.so.29:_ZNK7Imf_3_05Image10numXLevelsEv
libOpenEXRUtil-3_0.so.29:_ZNK7Imf_3_05Image10numYLevelsEv
libOpenEXRUtil-3_0.so.29:_ZNK7Imf_3_05Image11levelHeightEi
libOpenEXRUtil-3_0.so.29:_ZNK7Imf_3_05Image17levelRoundingModeEv
libOpenEXRUtil-3_0.so.29:_ZNK7Imf_3_05Image18dataWindowForLevelEi
libOpenEXRUtil-3_0.so.29:_ZNK7Imf_3_05Image18dataWindowForLevelEii
libOpenEXRUtil-3_0.so.29:_ZNK7Imf_3_05Image5levelEi
libOpenEXRUtil-3_0.so.29:_ZNK7Imf_3_05Image5levelEii
libOpenEXRUtil-3_0.so.29:_ZNK7Imf_3_05Image9levelModeEv
libOpenEXRUtil-3_0.so.29:_ZNK7Imf_3_05Image9numLevelsEv
libOpenEXRUtil-3_0.so.29:_ZNK7Imf_3_09DeepImage5levelEi
libOpenEXRUtil-3_0.so.29:_ZNK7Imf_3_09DeepImage5levelEii
libOpenEXRUtil-3_0.so.29:_ZNK7Imf_3_09FlatImage5levelEi
libOpenEXRUtil-3_0.so.29:_ZNK7Imf_3_09FlatImage5levelEii
